Archive member included because of file (symbol)

/opt/devkitpro/devkitPPC/lib/gcc/powerpc-eabi/4.8.2/../../../../powerpc-eabi/lib/libsysbase.a(iosupport.o)
                              sd_fat_devoptab.o (devoptab_list)
/opt/devkitpro/devkitPPC/lib/gcc/powerpc-eabi/4.8.2/../../../../powerpc-eabi/lib/libsysbase.a(mkdir.o)
                              fs_utils.o (mkdir)
/opt/devkitpro/devkitPPC/lib/gcc/powerpc-eabi/4.8.2/../../../../powerpc-eabi/lib/libc.a(lib_a-errno.o)
                              sd_fat_devoptab.o (__errno)
/opt/devkitpro/devkitPPC/lib/gcc/powerpc-eabi/4.8.2/../../../../powerpc-eabi/lib/libc.a(lib_a-impure.o)
                              /opt/devkitpro/devkitPPC/lib/gcc/powerpc-eabi/4.8.2/../../../../powerpc-eabi/lib/libsysbase.a(mkdir.o) (_impure_ptr)
/opt/devkitpro/devkitPPC/lib/gcc/powerpc-eabi/4.8.2/../../../../powerpc-eabi/lib/libc.a(lib_a-memcpy.o)
                              fs_utils.o (memcpy)
/opt/devkitpro/devkitPPC/lib/gcc/powerpc-eabi/4.8.2/../../../../powerpc-eabi/lib/libc.a(lib_a-memset.o)
                              fs_utils.o (memset)
/opt/devkitpro/devkitPPC/lib/gcc/powerpc-eabi/4.8.2/../../../../powerpc-eabi/lib/libc.a(lib_a-puts.o)
                              main.o (puts)
/opt/devkitpro/devkitPPC/lib/gcc/powerpc-eabi/4.8.2/../../../../powerpc-eabi/lib/libc.a(lib_a-snprintf.o)
                              fs_utils.o (snprintf)
/opt/devkitpro/devkitPPC/lib/gcc/powerpc-eabi/4.8.2/../../../../powerpc-eabi/lib/libc.a(lib_a-strchr.o)
                              sd_fat_devoptab.o (strchr)
/opt/devkitpro/devkitPPC/lib/gcc/powerpc-eabi/4.8.2/../../../../powerpc-eabi/lib/libc.a(lib_a-strcmp.o)
                              sd_fat_devoptab.o (strcmp)
/opt/devkitpro/devkitPPC/lib/gcc/powerpc-eabi/4.8.2/../../../../powerpc-eabi/lib/libc.a(lib_a-strcpy.o)
                              fs_utils.o (strcpy)
/opt/devkitpro/devkitPPC/lib/gcc/powerpc-eabi/4.8.2/../../../../powerpc-eabi/lib/libc.a(lib_a-strlen.o)
                              fs_utils.o (strlen)
/opt/devkitpro/devkitPPC/lib/gcc/powerpc-eabi/4.8.2/../../../../powerpc-eabi/lib/libc.a(lib_a-strncmp.o)
                              /opt/devkitpro/devkitPPC/lib/gcc/powerpc-eabi/4.8.2/../../../../powerpc-eabi/lib/libsysbase.a(iosupport.o) (strncmp)
/opt/devkitpro/devkitPPC/lib/gcc/powerpc-eabi/4.8.2/../../../../powerpc-eabi/lib/libc.a(lib_a-strncpy.o)
                              sd_fat_devoptab.o (strncpy)
/opt/devkitpro/devkitPPC/lib/gcc/powerpc-eabi/4.8.2/../../../../powerpc-eabi/lib/libc.a(lib_a-strrchr.o)
                              fs_utils.o (strrchr)
/opt/devkitpro/devkitPPC/lib/gcc/powerpc-eabi/4.8.2/../../../../powerpc-eabi/lib/libc.a(lib_a-strtok.o)
                              sd_fat_devoptab.o (strtok)
/opt/devkitpro/devkitPPC/lib/gcc/powerpc-eabi/4.8.2/../../../../powerpc-eabi/lib/libc.a(lib_a-strtok_r.o)
                              /opt/devkitpro/devkitPPC/lib/gcc/powerpc-eabi/4.8.2/../../../../powerpc-eabi/lib/libc.a(lib_a-strtok.o) (__strtok_r)
/opt/devkitpro/devkitPPC/lib/gcc/powerpc-eabi/4.8.2/../../../../powerpc-eabi/lib/libc.a(lib_a-svfprintf.o)
                              /opt/devkitpro/devkitPPC/lib/gcc/powerpc-eabi/4.8.2/../../../../powerpc-eabi/lib/libc.a(lib_a-snprintf.o) (_svfprintf_r)
/opt/devkitpro/devkitPPC/lib/gcc/powerpc-eabi/4.8.2/../../../../powerpc-eabi/lib/libc.a(lib_a-sysclose.o)
                              fs_utils.o (close)
/opt/devkitpro/devkitPPC/lib/gcc/powerpc-eabi/4.8.2/../../../../powerpc-eabi/lib/libc.a(lib_a-syslseek.o)
                              fs_utils.o (lseek)
/opt/devkitpro/devkitPPC/lib/gcc/powerpc-eabi/4.8.2/../../../../powerpc-eabi/lib/libc.a(lib_a-sysopen.o)
                              fs_utils.o (open)
/opt/devkitpro/devkitPPC/lib/gcc/powerpc-eabi/4.8.2/../../../../powerpc-eabi/lib/libc.a(lib_a-sysread.o)
                              fs_utils.o (read)
/opt/devkitpro/devkitPPC/lib/gcc/powerpc-eabi/4.8.2/../../../../powerpc-eabi/lib/libc.a(lib_a-sysstat.o)
                              fs_utils.o (stat)
/opt/devkitpro/devkitPPC/lib/gcc/powerpc-eabi/4.8.2/../../../../powerpc-eabi/lib/libc.a(lib_a-wcrtomb.o)
                              /opt/devkitpro/devkitPPC/lib/gcc/powerpc-eabi/4.8.2/../../../../powerpc-eabi/lib/libc.a(lib_a-svfprintf.o) (_wcrtomb_r)
/opt/devkitpro/devkitPPC/lib/gcc/powerpc-eabi/4.8.2/../../../../powerpc-eabi/lib/libc.a(lib_a-wcsrtombs.o)
                              /opt/devkitpro/devkitPPC/lib/gcc/powerpc-eabi/4.8.2/../../../../powerpc-eabi/lib/libc.a(lib_a-svfprintf.o) (_wcsrtombs_r)
/opt/devkitpro/devkitPPC/lib/gcc/powerpc-eabi/4.8.2/../../../../powerpc-eabi/lib/libc.a(lib_a-wctomb_r.o)
                              /opt/devkitpro/devkitPPC/lib/gcc/powerpc-eabi/4.8.2/../../../../powerpc-eabi/lib/libc.a(lib_a-wcrtomb.o) (__wctomb)
/opt/devkitpro/devkitPPC/lib/gcc/powerpc-eabi/4.8.2/../../../../powerpc-eabi/lib/libc.a(lib_a-dtoa.o)
                              /opt/devkitpro/devkitPPC/lib/gcc/powerpc-eabi/4.8.2/../../../../powerpc-eabi/lib/libc.a(lib_a-svfprintf.o) (_dtoa_r)
/opt/devkitpro/devkitPPC/lib/gcc/powerpc-eabi/4.8.2/../../../../powerpc-eabi/lib/libc.a(lib_a-fvwrite.o)
                              /opt/devkitpro/devkitPPC/lib/gcc/powerpc-eabi/4.8.2/../../../../powerpc-eabi/lib/libc.a(lib_a-puts.o) (__sfvwrite_r)
/opt/devkitpro/devkitPPC/lib/gcc/powerpc-eabi/4.8.2/../../../../powerpc-eabi/lib/libc.a(lib_a-locale.o)
                              /opt/devkitpro/devkitPPC/lib/gcc/powerpc-eabi/4.8.2/../../../../powerpc-eabi/lib/libc.a(lib_a-svfprintf.o) (__locale_charset)
/opt/devkitpro/devkitPPC/lib/gcc/powerpc-eabi/4.8.2/../../../../powerpc-eabi/lib/libc.a(lib_a-mbtowc_r.o)
                              /opt/devkitpro/devkitPPC/lib/gcc/powerpc-eabi/4.8.2/../../../../powerpc-eabi/lib/libc.a(lib_a-locale.o) (__utf8_mbtowc)
/opt/devkitpro/devkitPPC/lib/gcc/powerpc-eabi/4.8.2/../../../../powerpc-eabi/lib/libc.a(lib_a-memchr.o)
                              /opt/devkitpro/devkitPPC/lib/gcc/powerpc-eabi/4.8.2/../../../../powerpc-eabi/lib/libc.a(lib_a-svfprintf.o) (memchr)
/opt/devkitpro/devkitPPC/lib/gcc/powerpc-eabi/4.8.2/../../../../powerpc-eabi/lib/libc.a(lib_a-memmove.o)
                              /opt/devkitpro/devkitPPC/lib/gcc/powerpc-eabi/4.8.2/../../../../powerpc-eabi/lib/libc.a(lib_a-fvwrite.o) (memmove)
/opt/devkitpro/devkitPPC/lib/gcc/powerpc-eabi/4.8.2/../../../../powerpc-eabi/lib/libc.a(lib_a-mprec.o)
                              /opt/devkitpro/devkitPPC/lib/gcc/powerpc-eabi/4.8.2/../../../../powerpc-eabi/lib/libc.a(lib_a-dtoa.o) (_Balloc)
/opt/devkitpro/devkitPPC/lib/gcc/powerpc-eabi/4.8.2/../../../../powerpc-eabi/lib/libc.a(lib_a-s_fpclassify.o)
                              /opt/devkitpro/devkitPPC/lib/gcc/powerpc-eabi/4.8.2/../../../../powerpc-eabi/lib/libc.a(lib_a-svfprintf.o) (__fpclassifyd)
/opt/devkitpro/devkitPPC/lib/gcc/powerpc-eabi/4.8.2/../../../../powerpc-eabi/lib/libc.a(lib_a-strcasecmp.o)
                              /opt/devkitpro/devkitPPC/lib/gcc/powerpc-eabi/4.8.2/../../../../powerpc-eabi/lib/libc.a(lib_a-locale.o) (strcasecmp)
/opt/devkitpro/devkitPPC/lib/gcc/powerpc-eabi/4.8.2/../../../../powerpc-eabi/lib/libc.a(lib_a-strcat.o)
                              /opt/devkitpro/devkitPPC/lib/gcc/powerpc-eabi/4.8.2/../../../../powerpc-eabi/lib/libc.a(lib_a-locale.o) (strcat)
/opt/devkitpro/devkitPPC/lib/gcc/powerpc-eabi/4.8.2/../../../../powerpc-eabi/lib/libc.a(lib_a-strlcpy.o)
                              /opt/devkitpro/devkitPPC/lib/gcc/powerpc-eabi/4.8.2/../../../../powerpc-eabi/lib/libc.a(lib_a-locale.o) (strlcpy)
/opt/devkitpro/devkitPPC/lib/gcc/powerpc-eabi/4.8.2/../../../../powerpc-eabi/lib/libc.a(lib_a-strncasecmp.o)
                              /opt/devkitpro/devkitPPC/lib/gcc/powerpc-eabi/4.8.2/../../../../powerpc-eabi/lib/libc.a(lib_a-locale.o) (strncasecmp)
/opt/devkitpro/devkitPPC/lib/gcc/powerpc-eabi/4.8.2/../../../../powerpc-eabi/lib/libc.a(lib_a-strtol.o)
                              /opt/devkitpro/devkitPPC/lib/gcc/powerpc-eabi/4.8.2/../../../../powerpc-eabi/lib/libc.a(lib_a-locale.o) (_strtol_r)
/opt/devkitpro/devkitPPC/lib/gcc/powerpc-eabi/4.8.2/../../../../powerpc-eabi/lib/libc.a(lib_a-svfiprintf.o)
                              /opt/devkitpro/devkitPPC/lib/gcc/powerpc-eabi/4.8.2/../../../../powerpc-eabi/lib/libc.a(lib_a-svfprintf.o) (__ssprint_r)
/opt/devkitpro/devkitPPC/lib/gcc/powerpc-eabi/4.8.2/../../../../powerpc-eabi/lib/libc.a(lib_a-wcsnrtombs.o)
                              /opt/devkitpro/devkitPPC/lib/gcc/powerpc-eabi/4.8.2/../../../../powerpc-eabi/lib/libc.a(lib_a-wcsrtombs.o) (_wcsnrtombs_r)
/opt/devkitpro/devkitPPC/lib/gcc/powerpc-eabi/4.8.2/../../../../powerpc-eabi/lib/libc.a(lib_a-wsetup.o)
                              /opt/devkitpro/devkitPPC/lib/gcc/powerpc-eabi/4.8.2/../../../../powerpc-eabi/lib/libc.a(lib_a-fvwrite.o) (__swsetup_r)
/opt/devkitpro/devkitPPC/lib/gcc/powerpc-eabi/4.8.2/../../../../powerpc-eabi/lib/libc.a(lib_a-ctype_.o)
                              /opt/devkitpro/devkitPPC/lib/gcc/powerpc-eabi/4.8.2/../../../../powerpc-eabi/lib/libc.a(lib_a-locale.o) (__set_ctype)
/opt/devkitpro/devkitPPC/lib/gcc/powerpc-eabi/4.8.2/../../../../powerpc-eabi/lib/libc.a(lib_a-fflush.o)
                              /opt/devkitpro/devkitPPC/lib/gcc/powerpc-eabi/4.8.2/../../../../powerpc-eabi/lib/libc.a(lib_a-fvwrite.o) (_fflush_r)
/opt/devkitpro/devkitPPC/lib/gcc/powerpc-eabi/4.8.2/../../../../powerpc-eabi/lib/libc.a(lib_a-findfp.o)
                              /opt/devkitpro/devkitPPC/lib/gcc/powerpc-eabi/4.8.2/../../../../powerpc-eabi/lib/libc.a(lib_a-wsetup.o) (__sinit)
/opt/devkitpro/devkitPPC/lib/gcc/powerpc-eabi/4.8.2/../../../../powerpc-eabi/lib/libc.a(lib_a-fwalk.o)
                              /opt/devkitpro/devkitPPC/lib/gcc/powerpc-eabi/4.8.2/../../../../powerpc-eabi/lib/libc.a(lib_a-findfp.o) (_fwalk)
/opt/devkitpro/devkitPPC/lib/gcc/powerpc-eabi/4.8.2/../../../../powerpc-eabi/lib/libc.a(lib_a-getenv_r.o)
                              /opt/devkitpro/devkitPPC/lib/gcc/powerpc-eabi/4.8.2/../../../../powerpc-eabi/lib/libc.a(lib_a-locale.o) (_getenv_r)
/opt/devkitpro/devkitPPC/lib/gcc/powerpc-eabi/4.8.2/../../../../powerpc-eabi/lib/libc.a(lib_a-makebuf.o)
                              /opt/devkitpro/devkitPPC/lib/gcc/powerpc-eabi/4.8.2/../../../../powerpc-eabi/lib/libc.a(lib_a-wsetup.o) (__smakebuf_r)
/opt/devkitpro/devkitPPC/lib/gcc/powerpc-eabi/4.8.2/../../../../powerpc-eabi/lib/libc.a(lib_a-stdio.o)
                              /opt/devkitpro/devkitPPC/lib/gcc/powerpc-eabi/4.8.2/../../../../powerpc-eabi/lib/libc.a(lib_a-findfp.o) (__sread)
/opt/devkitpro/devkitPPC/lib/gcc/powerpc-eabi/4.8.2/../../../../powerpc-eabi/lib/libc.a(lib_a-environ.o)
                              /opt/devkitpro/devkitPPC/lib/gcc/powerpc-eabi/4.8.2/../../../../powerpc-eabi/lib/libc.a(lib_a-getenv_r.o) (environ)
/opt/devkitpro/devkitPPC/lib/gcc/powerpc-eabi/4.8.2/../../../../powerpc-eabi/lib/libc.a(lib_a-envlock.o)
                              /opt/devkitpro/devkitPPC/lib/gcc/powerpc-eabi/4.8.2/../../../../powerpc-eabi/lib/libc.a(lib_a-getenv_r.o) (__env_lock)
/opt/devkitpro/devkitPPC/lib/gcc/powerpc-eabi/4.8.2/../../../../powerpc-eabi/lib/libc.a(lib_a-fclose.o)
                              /opt/devkitpro/devkitPPC/lib/gcc/powerpc-eabi/4.8.2/../../../../powerpc-eabi/lib/libc.a(lib_a-findfp.o) (fclose)
/opt/devkitpro/devkitPPC/lib/gcc/powerpc-eabi/4.8.2/../../../../powerpc-eabi/lib/libsysbase.a(close.o)
                              /opt/devkitpro/devkitPPC/lib/gcc/powerpc-eabi/4.8.2/../../../../powerpc-eabi/lib/libc.a(lib_a-sysclose.o) (_close_r)
/opt/devkitpro/devkitPPC/lib/gcc/powerpc-eabi/4.8.2/../../../../powerpc-eabi/lib/libsysbase.a(fstat.o)
                              /opt/devkitpro/devkitPPC/lib/gcc/powerpc-eabi/4.8.2/../../../../powerpc-eabi/lib/libc.a(lib_a-makebuf.o) (_fstat_r)
/opt/devkitpro/devkitPPC/lib/gcc/powerpc-eabi/4.8.2/../../../../powerpc-eabi/lib/libsysbase.a(isatty.o)
                              /opt/devkitpro/devkitPPC/lib/gcc/powerpc-eabi/4.8.2/../../../../powerpc-eabi/lib/libc.a(lib_a-makebuf.o) (_isatty_r)
/opt/devkitpro/devkitPPC/lib/gcc/powerpc-eabi/4.8.2/../../../../powerpc-eabi/lib/libsysbase.a(lseek.o)
                              /opt/devkitpro/devkitPPC/lib/gcc/powerpc-eabi/4.8.2/../../../../powerpc-eabi/lib/libc.a(lib_a-syslseek.o) (_lseek_r)
/opt/devkitpro/devkitPPC/lib/gcc/powerpc-eabi/4.8.2/../../../../powerpc-eabi/lib/libsysbase.a(open.o)
                              /opt/devkitpro/devkitPPC/lib/gcc/powerpc-eabi/4.8.2/../../../../powerpc-eabi/lib/libc.a(lib_a-sysopen.o) (_open_r)
/opt/devkitpro/devkitPPC/lib/gcc/powerpc-eabi/4.8.2/../../../../powerpc-eabi/lib/libsysbase.a(read.o)
                              /opt/devkitpro/devkitPPC/lib/gcc/powerpc-eabi/4.8.2/../../../../powerpc-eabi/lib/libc.a(lib_a-sysread.o) (_read_r)
/opt/devkitpro/devkitPPC/lib/gcc/powerpc-eabi/4.8.2/../../../../powerpc-eabi/lib/libsysbase.a(stat.o)
                              /opt/devkitpro/devkitPPC/lib/gcc/powerpc-eabi/4.8.2/../../../../powerpc-eabi/lib/libc.a(lib_a-sysstat.o) (_stat_r)
/opt/devkitpro/devkitPPC/lib/gcc/powerpc-eabi/4.8.2/../../../../powerpc-eabi/lib/libsysbase.a(write.o)
                              /opt/devkitpro/devkitPPC/lib/gcc/powerpc-eabi/4.8.2/../../../../powerpc-eabi/lib/libc.a(lib_a-stdio.o) (_write_r)
/opt/devkitpro/devkitPPC/lib/gcc/powerpc-eabi/4.8.2/../../../../powerpc-eabi/lib/libsysbase.a(flock.o)
                              /opt/devkitpro/devkitPPC/lib/gcc/powerpc-eabi/4.8.2/../../../../powerpc-eabi/lib/libc.a(lib_a-puts.o) (__flockfile)
/opt/devkitpro/devkitPPC/lib/gcc/powerpc-eabi/4.8.2/../../../../powerpc-eabi/lib/libsysbase.a(syscall_support.o)
                              /opt/devkitpro/devkitPPC/lib/gcc/powerpc-eabi/4.8.2/../../../../powerpc-eabi/lib/libc.a(lib_a-findfp.o) (__libc_lock_init)
/opt/devkitpro/devkitPPC/lib/gcc/powerpc-eabi/4.8.2/../../../../powerpc-eabi/lib/libsysbase.a(handle_manager.o)
                              /opt/devkitpro/devkitPPC/lib/gcc/powerpc-eabi/4.8.2/../../../../powerpc-eabi/lib/libsysbase.a(close.o) (__release_handle)
/opt/devkitpro/devkitPPC/lib/gcc/powerpc-eabi/4.8.2/libgcc.a(_udivdi3.o)
                              /opt/devkitpro/devkitPPC/lib/gcc/powerpc-eabi/4.8.2/../../../../powerpc-eabi/lib/libc.a(lib_a-svfprintf.o) (__udivdi3)
/opt/devkitpro/devkitPPC/lib/gcc/powerpc-eabi/4.8.2/libgcc.a(_umoddi3.o)
                              /opt/devkitpro/devkitPPC/lib/gcc/powerpc-eabi/4.8.2/../../../../powerpc-eabi/lib/libc.a(lib_a-svfprintf.o) (__umoddi3)

Allocating common symbols
Common symbol       size              file

vpad_data           0xac              main.o
vpad_error          0x4               main.o

Discarded input sections

 .text          0x0000000000000000        0x0 entry.o
 .data          0x0000000000000000        0x0 entry.o
 .bss           0x0000000000000000        0x0 entry.o
 .comment       0x0000000000000000       0x23 entry.o
 .text          0x0000000000000000        0x0 main.o
 .data          0x0000000000000000        0x0 main.o
 .bss           0x0000000000000000        0x0 main.o
 .comment       0x0000000000000000       0x23 main.o
 .text          0x0000000000000000        0x0 acp_functions.o
 .bss           0x0000000000000000        0x0 acp_functions.o
 .text.InitAcquireACP
                0x0000000000000000       0x20 acp_functions.o
 .comment       0x0000000000000000       0x23 acp_functions.o
 .text          0x0000000000000000        0x0 aoc_functions.o
 .bss           0x0000000000000000        0x0 aoc_functions.o
 .text.InitAcquireAoc
                0x0000000000000000       0x20 aoc_functions.o
 .comment       0x0000000000000000       0x23 aoc_functions.o
 .text          0x0000000000000000        0x0 ax_functions.o
 .bss           0x0000000000000000        0x0 ax_functions.o
 .text.ProperlyEndTransitionAudio
                0x0000000000000000      0x174 ax_functions.o
 .comment       0x0000000000000000       0x23 ax_functions.o
 .text          0x0000000000000000        0x0 curl_functions.o
 .bss           0x0000000000000000        0x0 curl_functions.o
 .text.InitAcquireCurl
                0x0000000000000000       0x20 curl_functions.o
 .comment       0x0000000000000000       0x23 curl_functions.o
 .text          0x0000000000000000        0x0 fs_functions.o
 .bss           0x0000000000000000        0x0 fs_functions.o
 .comment       0x0000000000000000       0x23 fs_functions.o
 .text          0x0000000000000000        0x0 gx2_functions.o
 .bss           0x0000000000000000        0x0 gx2_functions.o
 .text.InitAcquireGX2
                0x0000000000000000       0x20 gx2_functions.o
 .comment       0x0000000000000000       0x23 gx2_functions.o
 .text          0x0000000000000000        0x0 os_functions.o
 .bss           0x0000000000000000        0x0 os_functions.o
 .text.InitAcquireOS
                0x0000000000000000       0x34 os_functions.o
 .comment       0x0000000000000000       0x23 os_functions.o
 .text          0x0000000000000000        0x0 padscore_functions.o
 .bss           0x0000000000000000        0x0 padscore_functions.o
 .text.InitAcquirePadScore
                0x0000000000000000       0x20 padscore_functions.o
 .comment       0x0000000000000000       0x23 padscore_functions.o
 .text          0x0000000000000000        0x0 socket_functions.o
 .bss           0x0000000000000000        0x0 socket_functions.o
 .text.InitAcquireSocket
                0x0000000000000000       0x20 socket_functions.o
 .sbss.hostIpAddress
                0x0000000000000000        0x4 socket_functions.o
 .comment       0x0000000000000000       0x23 socket_functions.o
 .text          0x0000000000000000        0x0 sys_functions.o
 .bss           0x0000000000000000        0x0 sys_functions.o
 .text.InitAcquireSys
                0x0000000000000000       0x20 sys_functions.o
 .comment       0x0000000000000000       0x23 sys_functions.o
 .text          0x0000000000000000        0x0 syshid_functions.o
 .bss           0x0000000000000000        0x0 syshid_functions.o
 .text.InitAcquireSysHID
                0x0000000000000000       0x20 syshid_functions.o
 .comment       0x0000000000000000       0x23 syshid_functions.o
 .text          0x0000000000000000        0x0 vpad_functions.o
 .bss           0x0000000000000000        0x0 vpad_functions.o
 .text.InitAcquireVPad
                0x0000000000000000       0x64 vpad_functions.o
 .comment       0x0000000000000000       0x23 vpad_functions.o
 .text          0x0000000000000000        0x0 fs_utils.o
 .data          0x0000000000000000        0x0 fs_utils.o
 .bss           0x0000000000000000        0x0 fs_utils.o
 .text.LoadFileToMem
                0x0000000000000000      0x16c fs_utils.o
 .text.CheckFile
                0x0000000000000000      0x10c fs_utils.o
 .text.CreateSubfolder
                0x0000000000000000      0x280 fs_utils.o
 .rodata.str1.4
                0x0000000000000000        0x3 fs_utils.o
 .comment       0x0000000000000000       0x23 fs_utils.o
 .text          0x0000000000000000        0x0 sd_fat_devoptab.o
 .data          0x0000000000000000        0x0 sd_fat_devoptab.o
 .bss           0x0000000000000000        0x0 sd_fat_devoptab.o
 .comment       0x0000000000000000       0x23 sd_fat_devoptab.o
 .text          0x0000000000000000        0x0 memory.o
 .data          0x0000000000000000        0x0 memory.o
 .bss           0x0000000000000000        0x0 memory.o
 .text.__wrap_calloc
                0x0000000000000000       0x60 memory.o
 .text.__wrap_malloc_usable_size
                0x0000000000000000        0xc memory.o
 .text.__wrap_realloc
                0x0000000000000000       0xa8 memory.o
 .text.__wrap__calloc_r
                0x0000000000000000       0x60 memory.o
 .text.__wrap__memalign_r
                0x0000000000000000       0x24 memory.o
 .text.__wrap__malloc_usable_size_r
                0x0000000000000000        0xc memory.o
 .text.MEM2_alloc
                0x0000000000000000       0x20 memory.o
 .text.MEM2_free
                0x0000000000000000       0x1c memory.o
 .text.MEM1_alloc
                0x0000000000000000       0x2c memory.o
 .text.MEM1_free
                0x0000000000000000       0x1c memory.o
 .text.MEMBucket_alloc
                0x0000000000000000       0x2c memory.o
 .text.MEMBucket_free
                0x0000000000000000       0x1c memory.o
 .comment       0x0000000000000000       0x23 memory.o
 .text          0x0000000000000000        0x0 font.o
 .data          0x0000000000000000        0x0 font.o
 .bss           0x0000000000000000        0x0 font.o
 .comment       0x0000000000000000       0x23 font.o
 .text          0x0000000000000000        0x0 tty.o
 .data          0x0000000000000000        0x0 tty.o
 .bss           0x0000000000000000        0x0 tty.o
 .text.tty_clear
                0x0000000000000000       0xe8 tty.o
 .text.tty_flip
                0x0000000000000000       0x4c tty.o
 .text.tty_draw_char
                0x0000000000000000      0x548 tty.o
 .text.tty_scroll
                0x0000000000000000       0xc0 tty.o
 .text.tty_print_char
                0x0000000000000000      0xd4c tty.o
 .comment       0x0000000000000000       0x23 tty.o
 .text          0x0000000000000000        0x0 logger.o
 .data          0x0000000000000000        0x0 logger.o
 .bss           0x0000000000000000        0x0 logger.o
 .comment       0x0000000000000000       0x23 logger.o
 .text          0x0000000000000000      0x2f8 /opt/devkitpro/devkitPPC/lib/gcc/powerpc-eabi/4.8.2/../../../../powerpc-eabi/lib/libsysbase.a(iosupport.o)
 .bss           0x0000000000000000        0x0 /opt/devkitpro/devkitPPC/lib/gcc/powerpc-eabi/4.8.2/../../../../powerpc-eabi/lib/libsysbase.a(iosupport.o)
 .comment       0x0000000000000000       0x23 /opt/devkitpro/devkitPPC/lib/gcc/powerpc-eabi/4.8.2/../../../../powerpc-eabi/lib/libsysbase.a(iosupport.o)
 .text          0x0000000000000000       0x9c /opt/devkitpro/devkitPPC/lib/gcc/powerpc-eabi/4.8.2/../../../../powerpc-eabi/lib/libsysbase.a(mkdir.o)
 .data          0x0000000000000000        0x0 /opt/devkitpro/devkitPPC/lib/gcc/powerpc-eabi/4.8.2/../../../../powerpc-eabi/lib/libsysbase.a(mkdir.o)
 .bss           0x0000000000000000        0x0 /opt/devkitpro/devkitPPC/lib/gcc/powerpc-eabi/4.8.2/../../../../powerpc-eabi/lib/libsysbase.a(mkdir.o)
 .comment       0x0000000000000000       0x23 /opt/devkitpro/devkitPPC/lib/gcc/powerpc-eabi/4.8.2/../../../../powerpc-eabi/lib/libsysbase.a(mkdir.o)
 .text          0x0000000000000000        0x0 /opt/devkitpro/devkitPPC/lib/gcc/powerpc-eabi/4.8.2/../../../../powerpc-eabi/lib/libc.a(lib_a-errno.o)
 .data          0x0000000000000000        0x0 /opt/devkitpro/devkitPPC/lib/gcc/powerpc-eabi/4.8.2/../../../../powerpc-eabi/lib/libc.a(lib_a-errno.o)
 .bss           0x0000000000000000        0x0 /opt/devkitpro/devkitPPC/lib/gcc/powerpc-eabi/4.8.2/../../../../powerpc-eabi/lib/libc.a(lib_a-errno.o)
 .comment       0x0000000000000000       0x23 /opt/devkitpro/devkitPPC/lib/gcc/powerpc-eabi/4.8.2/../../../../powerpc-eabi/lib/libc.a(lib_a-errno.o)
 .text          0x0000000000000000        0x0 /opt/devkitpro/devkitPPC/lib/gcc/powerpc-eabi/4.8.2/../../../../powerpc-eabi/lib/libc.a(lib_a-impure.o)
 .data          0x0000000000000000        0x0 /opt/devkitpro/devkitPPC/lib/gcc/powerpc-eabi/4.8.2/../../../../powerpc-eabi/lib/libc.a(lib_a-impure.o)
 .bss           0x0000000000000000        0x0 /opt/devkitpro/devkitPPC/lib/gcc/powerpc-eabi/4.8.2/../../../../powerpc-eabi/lib/libc.a(lib_a-impure.o)
 .comment       0x0000000000000000       0x23 /opt/devkitpro/devkitPPC/lib/gcc/powerpc-eabi/4.8.2/../../../../powerpc-eabi/lib/libc.a(lib_a-impure.o)
 .text          0x0000000000000000        0x0 /opt/devkitpro/devkitPPC/lib/gcc/powerpc-eabi/4.8.2/../../../../powerpc-eabi/lib/libc.a(lib_a-memcpy.o)
 .data          0x0000000000000000        0x0 /opt/devkitpro/devkitPPC/lib/gcc/powerpc-eabi/4.8.2/../../../../powerpc-eabi/lib/libc.a(lib_a-memcpy.o)
 .bss           0x0000000000000000        0x0 /opt/devkitpro/devkitPPC/lib/gcc/powerpc-eabi/4.8.2/../../../../powerpc-eabi/lib/libc.a(lib_a-memcpy.o)
 .comment       0x0000000000000000       0x23 /opt/devkitpro/devkitPPC/lib/gcc/powerpc-eabi/4.8.2/../../../../powerpc-eabi/lib/libc.a(lib_a-memcpy.o)
 .text          0x0000000000000000        0x0 /opt/devkitpro/devkitPPC/lib/gcc/powerpc-eabi/4.8.2/../../../../powerpc-eabi/lib/libc.a(lib_a-memset.o)
 .data          0x0000000000000000        0x0 /opt/devkitpro/devkitPPC/lib/gcc/powerpc-eabi/4.8.2/../../../../powerpc-eabi/lib/libc.a(lib_a-memset.o)
 .bss           0x0000000000000000        0x0 /opt/devkitpro/devkitPPC/lib/gcc/powerpc-eabi/4.8.2/../../../../powerpc-eabi/lib/libc.a(lib_a-memset.o)
 .comment       0x0000000000000000       0x23 /opt/devkitpro/devkitPPC/lib/gcc/powerpc-eabi/4.8.2/../../../../powerpc-eabi/lib/libc.a(lib_a-memset.o)
 .text          0x0000000000000000        0x0 /opt/devkitpro/devkitPPC/lib/gcc/powerpc-eabi/4.8.2/../../../../powerpc-eabi/lib/libc.a(lib_a-puts.o)
 .data          0x0000000000000000        0x0 /opt/devkitpro/devkitPPC/lib/gcc/powerpc-eabi/4.8.2/../../../../powerpc-eabi/lib/libc.a(lib_a-puts.o)
 .bss           0x0000000000000000        0x0 /opt/devkitpro/devkitPPC/lib/gcc/powerpc-eabi/4.8.2/../../../../powerpc-eabi/lib/libc.a(lib_a-puts.o)
 .comment       0x0000000000000000       0x23 /opt/devkitpro/devkitPPC/lib/gcc/powerpc-eabi/4.8.2/../../../../powerpc-eabi/lib/libc.a(lib_a-puts.o)
 .text          0x0000000000000000        0x0 /opt/devkitpro/devkitPPC/lib/gcc/powerpc-eabi/4.8.2/../../../../powerpc-eabi/lib/libc.a(lib_a-snprintf.o)
 .data          0x0000000000000000        0x0 /opt/devkitpro/devkitPPC/lib/gcc/powerpc-eabi/4.8.2/../../../../powerpc-eabi/lib/libc.a(lib_a-snprintf.o)
 .bss           0x0000000000000000        0x0 /opt/devkitpro/devkitPPC/lib/gcc/powerpc-eabi/4.8.2/../../../../powerpc-eabi/lib/libc.a(lib_a-snprintf.o)
 .text._snprintf_r
                0x0000000000000000      0x10c /opt/devkitpro/devkitPPC/lib/gcc/powerpc-eabi/4.8.2/../../../../powerpc-eabi/lib/libc.a(lib_a-snprintf.o)
 .text.snprintf
                0x0000000000000000      0x110 /opt/devkitpro/devkitPPC/lib/gcc/powerpc-eabi/4.8.2/../../../../powerpc-eabi/lib/libc.a(lib_a-snprintf.o)
 .comment       0x0000000000000000       0x23 /opt/devkitpro/devkitPPC/lib/gcc/powerpc-eabi/4.8.2/../../../../powerpc-eabi/lib/libc.a(lib_a-snprintf.o)
 .gnu.attributes
                0x0000000000000000       0x10 /opt/devkitpro/devkitPPC/lib/gcc/powerpc-eabi/4.8.2/../../../../powerpc-eabi/lib/libc.a(lib_a-snprintf.o)
 .text          0x0000000000000000        0x0 /opt/devkitpro/devkitPPC/lib/gcc/powerpc-eabi/4.8.2/../../../../powerpc-eabi/lib/libc.a(lib_a-strchr.o)
 .data          0x0000000000000000        0x0 /opt/devkitpro/devkitPPC/lib/gcc/powerpc-eabi/4.8.2/../../../../powerpc-eabi/lib/libc.a(lib_a-strchr.o)
 .bss           0x0000000000000000        0x0 /opt/devkitpro/devkitPPC/lib/gcc/powerpc-eabi/4.8.2/../../../../powerpc-eabi/lib/libc.a(lib_a-strchr.o)
 .comment       0x0000000000000000       0x23 /opt/devkitpro/devkitPPC/lib/gcc/powerpc-eabi/4.8.2/../../../../powerpc-eabi/lib/libc.a(lib_a-strchr.o)
 .text          0x0000000000000000        0x0 /opt/devkitpro/devkitPPC/lib/gcc/powerpc-eabi/4.8.2/../../../../powerpc-eabi/lib/libc.a(lib_a-strcmp.o)
 .data          0x0000000000000000        0x0 /opt/devkitpro/devkitPPC/lib/gcc/powerpc-eabi/4.8.2/../../../../powerpc-eabi/lib/libc.a(lib_a-strcmp.o)
 .bss           0x0000000000000000        0x0 /opt/devkitpro/devkitPPC/lib/gcc/powerpc-eabi/4.8.2/../../../../powerpc-eabi/lib/libc.a(lib_a-strcmp.o)
 .comment       0x0000000000000000       0x23 /opt/devkitpro/devkitPPC/lib/gcc/powerpc-eabi/4.8.2/../../../../powerpc-eabi/lib/libc.a(lib_a-strcmp.o)
 .text          0x0000000000000000        0x0 /opt/devkitpro/devkitPPC/lib/gcc/powerpc-eabi/4.8.2/../../../../powerpc-eabi/lib/libc.a(lib_a-strcpy.o)
 .data          0x0000000000000000        0x0 /opt/devkitpro/devkitPPC/lib/gcc/powerpc-eabi/4.8.2/../../../../powerpc-eabi/lib/libc.a(lib_a-strcpy.o)
 .bss           0x0000000000000000        0x0 /opt/devkitpro/devkitPPC/lib/gcc/powerpc-eabi/4.8.2/../../../../powerpc-eabi/lib/libc.a(lib_a-strcpy.o)
 .comment       0x0000000000000000       0x23 /opt/devkitpro/devkitPPC/lib/gcc/powerpc-eabi/4.8.2/../../../../powerpc-eabi/lib/libc.a(lib_a-strcpy.o)
 .text          0x0000000000000000        0x0 /opt/devkitpro/devkitPPC/lib/gcc/powerpc-eabi/4.8.2/../../../../powerpc-eabi/lib/libc.a(lib_a-strlen.o)
 .data          0x0000000000000000        0x0 /opt/devkitpro/devkitPPC/lib/gcc/powerpc-eabi/4.8.2/../../../../powerpc-eabi/lib/libc.a(lib_a-strlen.o)
 .bss           0x0000000000000000        0x0 /opt/devkitpro/devkitPPC/lib/gcc/powerpc-eabi/4.8.2/../../../../powerpc-eabi/lib/libc.a(lib_a-strlen.o)
 .comment       0x0000000000000000       0x23 /opt/devkitpro/devkitPPC/lib/gcc/powerpc-eabi/4.8.2/../../../../powerpc-eabi/lib/libc.a(lib_a-strlen.o)
 .text          0x0000000000000000        0x0 /opt/devkitpro/devkitPPC/lib/gcc/powerpc-eabi/4.8.2/../../../../powerpc-eabi/lib/libc.a(lib_a-strncmp.o)
 .data          0x0000000000000000        0x0 /opt/devkitpro/devkitPPC/lib/gcc/powerpc-eabi/4.8.2/../../../../powerpc-eabi/lib/libc.a(lib_a-strncmp.o)
 .bss           0x0000000000000000        0x0 /opt/devkitpro/devkitPPC/lib/gcc/powerpc-eabi/4.8.2/../../../../powerpc-eabi/lib/libc.a(lib_a-strncmp.o)
 .text.strncmp  0x0000000000000000      0x140 /opt/devkitpro/devkitPPC/lib/gcc/powerpc-eabi/4.8.2/../../../../powerpc-eabi/lib/libc.a(lib_a-strncmp.o)
 .comment       0x0000000000000000       0x23 /opt/devkitpro/devkitPPC/lib/gcc/powerpc-eabi/4.8.2/../../../../powerpc-eabi/lib/libc.a(lib_a-strncmp.o)
 .text          0x0000000000000000        0x0 /opt/devkitpro/devkitPPC/lib/gcc/powerpc-eabi/4.8.2/../../../../powerpc-eabi/lib/libc.a(lib_a-strncpy.o)
 .data          0x0000000000000000        0x0 /opt/devkitpro/devkitPPC/lib/gcc/powerpc-eabi/4.8.2/../../../../powerpc-eabi/lib/libc.a(lib_a-strncpy.o)
 .bss           0x0000000000000000        0x0 /opt/devkitpro/devkitPPC/lib/gcc/powerpc-eabi/4.8.2/../../../../powerpc-eabi/lib/libc.a(lib_a-strncpy.o)
 .comment       0x0000000000000000       0x23 /opt/devkitpro/devkitPPC/lib/gcc/powerpc-eabi/4.8.2/../../../../powerpc-eabi/lib/libc.a(lib_a-strncpy.o)
 .text          0x0000000000000000        0x0 /opt/devkitpro/devkitPPC/lib/gcc/powerpc-eabi/4.8.2/../../../../powerpc-eabi/lib/libc.a(lib_a-strrchr.o)
 .data          0x0000000000000000        0x0 /opt/devkitpro/devkitPPC/lib/gcc/powerpc-eabi/4.8.2/../../../../powerpc-eabi/lib/libc.a(lib_a-strrchr.o)
 .bss           0x0000000000000000        0x0 /opt/devkitpro/devkitPPC/lib/gcc/powerpc-eabi/4.8.2/../../../../powerpc-eabi/lib/libc.a(lib_a-strrchr.o)
 .text.strrchr  0x0000000000000000       0x78 /opt/devkitpro/devkitPPC/lib/gcc/powerpc-eabi/4.8.2/../../../../powerpc-eabi/lib/libc.a(lib_a-strrchr.o)
 .comment       0x0000000000000000       0x23 /opt/devkitpro/devkitPPC/lib/gcc/powerpc-eabi/4.8.2/../../../../powerpc-eabi/lib/libc.a(lib_a-strrchr.o)
 .text          0x0000000000000000        0x0 /opt/devkitpro/devkitPPC/lib/gcc/powerpc-eabi/4.8.2/../../../../powerpc-eabi/lib/libc.a(lib_a-strtok.o)
 .data          0x0000000000000000        0x0 /opt/devkitpro/devkitPPC/lib/gcc/powerpc-eabi/4.8.2/../../../../powerpc-eabi/lib/libc.a(lib_a-strtok.o)
 .bss           0x0000000000000000        0x0 /opt/devkitpro/devkitPPC/lib/gcc/powerpc-eabi/4.8.2/../../../../powerpc-eabi/lib/libc.a(lib_a-strtok.o)
 .comment       0x0000000000000000       0x23 /opt/devkitpro/devkitPPC/lib/gcc/powerpc-eabi/4.8.2/../../../../powerpc-eabi/lib/libc.a(lib_a-strtok.o)
 .text          0x0000000000000000        0x0 /opt/devkitpro/devkitPPC/lib/gcc/powerpc-eabi/4.8.2/../../../../powerpc-eabi/lib/libc.a(lib_a-strtok_r.o)
 .data          0x0000000000000000        0x0 /opt/devkitpro/devkitPPC/lib/gcc/powerpc-eabi/4.8.2/../../../../powerpc-eabi/lib/libc.a(lib_a-strtok_r.o)
 .bss           0x0000000000000000        0x0 /opt/devkitpro/devkitPPC/lib/gcc/powerpc-eabi/4.8.2/../../../../powerpc-eabi/lib/libc.a(lib_a-strtok_r.o)
 .text.strtok_r
                0x0000000000000000        0x8 /opt/devkitpro/devkitPPC/lib/gcc/powerpc-eabi/4.8.2/../../../../powerpc-eabi/lib/libc.a(lib_a-strtok_r.o)
 .comment       0x0000000000000000       0x23 /opt/devkitpro/devkitPPC/lib/gcc/powerpc-eabi/4.8.2/../../../../powerpc-eabi/lib/libc.a(lib_a-strtok_r.o)
 .text          0x0000000000000000        0x0 /opt/devkitpro/devkitPPC/lib/gcc/powerpc-eabi/4.8.2/../../../../powerpc-eabi/lib/libc.a(lib_a-svfprintf.o)
 .data          0x0000000000000000        0x0 /opt/devkitpro/devkitPPC/lib/gcc/powerpc-eabi/4.8.2/../../../../powerpc-eabi/lib/libc.a(lib_a-svfprintf.o)
 .bss           0x0000000000000000        0x0 /opt/devkitpro/devkitPPC/lib/gcc/powerpc-eabi/4.8.2/../../../../powerpc-eabi/lib/libc.a(lib_a-svfprintf.o)
 .text._svfprintf_r
                0x0000000000000000     0x24a0 /opt/devkitpro/devkitPPC/lib/gcc/powerpc-eabi/4.8.2/../../../../powerpc-eabi/lib/libc.a(lib_a-svfprintf.o)
 .rodata._svfprintf_r
                0x0000000000000000      0x164 /opt/devkitpro/devkitPPC/lib/gcc/powerpc-eabi/4.8.2/../../../../powerpc-eabi/lib/libc.a(lib_a-svfprintf.o)
 .rodata.blanks.4183
                0x0000000000000000       0x10 /opt/devkitpro/devkitPPC/lib/gcc/powerpc-eabi/4.8.2/../../../../powerpc-eabi/lib/libc.a(lib_a-svfprintf.o)
 .rodata.cst8   0x0000000000000000        0x8 /opt/devkitpro/devkitPPC/lib/gcc/powerpc-eabi/4.8.2/../../../../powerpc-eabi/lib/libc.a(lib_a-svfprintf.o)
 .rodata.str1.4
                0x0000000000000000       0x42 /opt/devkitpro/devkitPPC/lib/gcc/powerpc-eabi/4.8.2/../../../../powerpc-eabi/lib/libc.a(lib_a-svfprintf.o)
 .rodata.zeroes.4184
                0x0000000000000000       0x10 /opt/devkitpro/devkitPPC/lib/gcc/powerpc-eabi/4.8.2/../../../../powerpc-eabi/lib/libc.a(lib_a-svfprintf.o)
 .comment       0x0000000000000000       0x23 /opt/devkitpro/devkitPPC/lib/gcc/powerpc-eabi/4.8.2/../../../../powerpc-eabi/lib/libc.a(lib_a-svfprintf.o)
 .gnu.attributes
                0x0000000000000000       0x10 /opt/devkitpro/devkitPPC/lib/gcc/powerpc-eabi/4.8.2/../../../../powerpc-eabi/lib/libc.a(lib_a-svfprintf.o)
 .text          0x0000000000000000        0x0 /opt/devkitpro/devkitPPC/lib/gcc/powerpc-eabi/4.8.2/../../../../powerpc-eabi/lib/libc.a(lib_a-sysclose.o)
 .data          0x0000000000000000        0x0 /opt/devkitpro/devkitPPC/lib/gcc/powerpc-eabi/4.8.2/../../../../powerpc-eabi/lib/libc.a(lib_a-sysclose.o)
 .bss           0x0000000000000000        0x0 /opt/devkitpro/devkitPPC/lib/gcc/powerpc-eabi/4.8.2/../../../../powerpc-eabi/lib/libc.a(lib_a-sysclose.o)
 .text.close    0x0000000000000000       0x10 /opt/devkitpro/devkitPPC/lib/gcc/powerpc-eabi/4.8.2/../../../../powerpc-eabi/lib/libc.a(lib_a-sysclose.o)
 .comment       0x0000000000000000       0x23 /opt/devkitpro/devkitPPC/lib/gcc/powerpc-eabi/4.8.2/../../../../powerpc-eabi/lib/libc.a(lib_a-sysclose.o)
 .text          0x0000000000000000        0x0 /opt/devkitpro/devkitPPC/lib/gcc/powerpc-eabi/4.8.2/../../../../powerpc-eabi/lib/libc.a(lib_a-syslseek.o)
 .data          0x0000000000000000        0x0 /opt/devkitpro/devkitPPC/lib/gcc/powerpc-eabi/4.8.2/../../../../powerpc-eabi/lib/libc.a(lib_a-syslseek.o)
 .bss           0x0000000000000000        0x0 /opt/devkitpro/devkitPPC/lib/gcc/powerpc-eabi/4.8.2/../../../../powerpc-eabi/lib/libc.a(lib_a-syslseek.o)
 .text.lseek    0x0000000000000000       0x10 /opt/devkitpro/devkitPPC/lib/gcc/powerpc-eabi/4.8.2/../../../../powerpc-eabi/lib/libc.a(lib_a-syslseek.o)
 .comment       0x0000000000000000       0x23 /opt/devkitpro/devkitPPC/lib/gcc/powerpc-eabi/4.8.2/../../../../powerpc-eabi/lib/libc.a(lib_a-syslseek.o)
 .text          0x0000000000000000        0x0 /opt/devkitpro/devkitPPC/lib/gcc/powerpc-eabi/4.8.2/../../../../powerpc-eabi/lib/libc.a(lib_a-sysopen.o)
 .data          0x0000000000000000        0x0 /opt/devkitpro/devkitPPC/lib/gcc/powerpc-eabi/4.8.2/../../../../powerpc-eabi/lib/libc.a(lib_a-sysopen.o)
 .bss           0x0000000000000000        0x0 /opt/devkitpro/devkitPPC/lib/gcc/powerpc-eabi/4.8.2/../../../../powerpc-eabi/lib/libc.a(lib_a-sysopen.o)
 .text.open     0x0000000000000000       0x58 /opt/devkitpro/devkitPPC/lib/gcc/powerpc-eabi/4.8.2/../../../../powerpc-eabi/lib/libc.a(lib_a-sysopen.o)
 .comment       0x0000000000000000       0x23 /opt/devkitpro/devkitPPC/lib/gcc/powerpc-eabi/4.8.2/../../../../powerpc-eabi/lib/libc.a(lib_a-sysopen.o)
 .text          0x0000000000000000        0x0 /opt/devkitpro/devkitPPC/lib/gcc/powerpc-eabi/4.8.2/../../../../powerpc-eabi/lib/libc.a(lib_a-sysread.o)
 .data          0x0000000000000000        0x0 /opt/devkitpro/devkitPPC/lib/gcc/powerpc-eabi/4.8.2/../../../../powerpc-eabi/lib/libc.a(lib_a-sysread.o)
 .bss           0x0000000000000000        0x0 /opt/devkitpro/devkitPPC/lib/gcc/powerpc-eabi/4.8.2/../../../../powerpc-eabi/lib/libc.a(lib_a-sysread.o)
 .text.read     0x0000000000000000       0x20 /opt/devkitpro/devkitPPC/lib/gcc/powerpc-eabi/4.8.2/../../../../powerpc-eabi/lib/libc.a(lib_a-sysread.o)
 .comment       0x0000000000000000       0x23 /opt/devkitpro/devkitPPC/lib/gcc/powerpc-eabi/4.8.2/../../../../powerpc-eabi/lib/libc.a(lib_a-sysread.o)
 .text          0x0000000000000000        0x0 /opt/devkitpro/devkitPPC/lib/gcc/powerpc-eabi/4.8.2/../../../../powerpc-eabi/lib/libc.a(lib_a-sysstat.o)
 .data          0x0000000000000000        0x0 /opt/devkitpro/devkitPPC/lib/gcc/powerpc-eabi/4.8.2/../../../../powerpc-eabi/lib/libc.a(lib_a-sysstat.o)
 .bss           0x0000000000000000        0x0 /opt/devkitpro/devkitPPC/lib/gcc/powerpc-eabi/4.8.2/../../../../powerpc-eabi/lib/libc.a(lib_a-sysstat.o)
 .text.stat     0x0000000000000000       0x18 /opt/devkitpro/devkitPPC/lib/gcc/powerpc-eabi/4.8.2/../../../../powerpc-eabi/lib/libc.a(lib_a-sysstat.o)
 .comment       0x0000000000000000       0x23 /opt/devkitpro/devkitPPC/lib/gcc/powerpc-eabi/4.8.2/../../../../powerpc-eabi/lib/libc.a(lib_a-sysstat.o)
 .text          0x0000000000000000        0x0 /opt/devkitpro/devkitPPC/lib/gcc/powerpc-eabi/4.8.2/../../../../powerpc-eabi/lib/libc.a(lib_a-wcrtomb.o)
 .data          0x0000000000000000        0x0 /opt/devkitpro/devkitPPC/lib/gcc/powerpc-eabi/4.8.2/../../../../powerpc-eabi/lib/libc.a(lib_a-wcrtomb.o)
 .bss           0x0000000000000000        0x0 /opt/devkitpro/devkitPPC/lib/gcc/powerpc-eabi/4.8.2/../../../../powerpc-eabi/lib/libc.a(lib_a-wcrtomb.o)
 .text._wcrtomb_r
                0x0000000000000000       0xbc /opt/devkitpro/devkitPPC/lib/gcc/powerpc-eabi/4.8.2/../../../../powerpc-eabi/lib/libc.a(lib_a-wcrtomb.o)
 .text.wcrtomb  0x0000000000000000       0xe0 /opt/devkitpro/devkitPPC/lib/gcc/powerpc-eabi/4.8.2/../../../../powerpc-eabi/lib/libc.a(lib_a-wcrtomb.o)
 .comment       0x0000000000000000       0x23 /opt/devkitpro/devkitPPC/lib/gcc/powerpc-eabi/4.8.2/../../../../powerpc-eabi/lib/libc.a(lib_a-wcrtomb.o)
 .text          0x0000000000000000        0x0 /opt/devkitpro/devkitPPC/lib/gcc/powerpc-eabi/4.8.2/../../../../powerpc-eabi/lib/libc.a(lib_a-wcsrtombs.o)
 .data          0x0000000000000000        0x0 /opt/devkitpro/devkitPPC/lib/gcc/powerpc-eabi/4.8.2/../../../../powerpc-eabi/lib/libc.a(lib_a-wcsrtombs.o)
 .bss           0x0000000000000000        0x0 /opt/devkitpro/devkitPPC/lib/gcc/powerpc-eabi/4.8.2/../../../../powerpc-eabi/lib/libc.a(lib_a-wcsrtombs.o)
 .text._wcsrtombs_r
                0x0000000000000000       0x14 /opt/devkitpro/devkitPPC/lib/gcc/powerpc-eabi/4.8.2/../../../../powerpc-eabi/lib/libc.a(lib_a-wcsrtombs.o)
 .text.wcsrtombs
                0x0000000000000000       0x28 /opt/devkitpro/devkitPPC/lib/gcc/powerpc-eabi/4.8.2/../../../../powerpc-eabi/lib/libc.a(lib_a-wcsrtombs.o)
 .comment       0x0000000000000000       0x23 /opt/devkitpro/devkitPPC/lib/gcc/powerpc-eabi/4.8.2/../../../../powerpc-eabi/lib/libc.a(lib_a-wcsrtombs.o)
 .text          0x0000000000000000        0x0 /opt/devkitpro/devkitPPC/lib/gcc/powerpc-eabi/4.8.2/../../../../powerpc-eabi/lib/libc.a(lib_a-wctomb_r.o)
 .data          0x0000000000000000        0x0 /opt/devkitpro/devkitPPC/lib/gcc/powerpc-eabi/4.8.2/../../../../powerpc-eabi/lib/libc.a(lib_a-wctomb_r.o)
 .bss           0x0000000000000000        0x0 /opt/devkitpro/devkitPPC/lib/gcc/powerpc-eabi/4.8.2/../../../../powerpc-eabi/lib/libc.a(lib_a-wctomb_r.o)
 .text.__utf8_wctomb
                0x0000000000000000       0xfc /opt/devkitpro/devkitPPC/lib/gcc/powerpc-eabi/4.8.2/../../../../powerpc-eabi/lib/libc.a(lib_a-wctomb_r.o)
 .text._wctomb_r
                0x0000000000000000       0x68 /opt/devkitpro/devkitPPC/lib/gcc/powerpc-eabi/4.8.2/../../../../powerpc-eabi/lib/libc.a(lib_a-wctomb_r.o)
 .text.__ascii_wctomb
                0x0000000000000000       0x34 /opt/devkitpro/devkitPPC/lib/gcc/powerpc-eabi/4.8.2/../../../../powerpc-eabi/lib/libc.a(lib_a-wctomb_r.o)
 .text.__sjis_wctomb
                0x0000000000000000       0x8c /opt/devkitpro/devkitPPC/lib/gcc/powerpc-eabi/4.8.2/../../../../powerpc-eabi/lib/libc.a(lib_a-wctomb_r.o)
 .text.__eucjp_wctomb
                0x0000000000000000       0xb8 /opt/devkitpro/devkitPPC/lib/gcc/powerpc-eabi/4.8.2/../../../../powerpc-eabi/lib/libc.a(lib_a-wctomb_r.o)
 .text.__jis_wctomb
                0x0000000000000000       0xd0 /opt/devkitpro/devkitPPC/lib/gcc/powerpc-eabi/4.8.2/../../../../powerpc-eabi/lib/libc.a(lib_a-wctomb_r.o)
 .sdata.__wctomb
                0x0000000000000000        0x4 /opt/devkitpro/devkitPPC/lib/gcc/powerpc-eabi/4.8.2/../../../../powerpc-eabi/lib/libc.a(lib_a-wctomb_r.o)
 .comment       0x0000000000000000       0x23 /opt/devkitpro/devkitPPC/lib/gcc/powerpc-eabi/4.8.2/../../../../powerpc-eabi/lib/libc.a(lib_a-wctomb_r.o)
 .text          0x0000000000000000        0x0 /opt/devkitpro/devkitPPC/lib/gcc/powerpc-eabi/4.8.2/../../../../powerpc-eabi/lib/libc.a(lib_a-dtoa.o)
 .data          0x0000000000000000        0x0 /opt/devkitpro/devkitPPC/lib/gcc/powerpc-eabi/4.8.2/../../../../powerpc-eabi/lib/libc.a(lib_a-dtoa.o)
 .bss           0x0000000000000000        0x0 /opt/devkitpro/devkitPPC/lib/gcc/powerpc-eabi/4.8.2/../../../../powerpc-eabi/lib/libc.a(lib_a-dtoa.o)
 .text.quorem   0x0000000000000000      0x214 /opt/devkitpro/devkitPPC/lib/gcc/powerpc-eabi/4.8.2/../../../../powerpc-eabi/lib/libc.a(lib_a-dtoa.o)
 .text._dtoa_r  0x0000000000000000     0x1220 /opt/devkitpro/devkitPPC/lib/gcc/powerpc-eabi/4.8.2/../../../../powerpc-eabi/lib/libc.a(lib_a-dtoa.o)
 .rodata.cst4   0x0000000000000000       0x20 /opt/devkitpro/devkitPPC/lib/gcc/powerpc-eabi/4.8.2/../../../../powerpc-eabi/lib/libc.a(lib_a-dtoa.o)
 .rodata.cst8   0x0000000000000000       0x20 /opt/devkitpro/devkitPPC/lib/gcc/powerpc-eabi/4.8.2/../../../../powerpc-eabi/lib/libc.a(lib_a-dtoa.o)
 .rodata.str1.4
                0x0000000000000000       0x12 /opt/devkitpro/devkitPPC/lib/gcc/powerpc-eabi/4.8.2/../../../../powerpc-eabi/lib/libc.a(lib_a-dtoa.o)
 .comment       0x0000000000000000       0x23 /opt/devkitpro/devkitPPC/lib/gcc/powerpc-eabi/4.8.2/../../../../powerpc-eabi/lib/libc.a(lib_a-dtoa.o)
 .gnu.attributes
                0x0000000000000000       0x10 /opt/devkitpro/devkitPPC/lib/gcc/powerpc-eabi/4.8.2/../../../../powerpc-eabi/lib/libc.a(lib_a-dtoa.o)
 .text          0x0000000000000000        0x0 /opt/devkitpro/devkitPPC/lib/gcc/powerpc-eabi/4.8.2/../../../../powerpc-eabi/lib/libc.a(lib_a-fvwrite.o)
 .data          0x0000000000000000        0x0 /opt/devkitpro/devkitPPC/lib/gcc/powerpc-eabi/4.8.2/../../../../powerpc-eabi/lib/libc.a(lib_a-fvwrite.o)
 .bss           0x0000000000000000        0x0 /opt/devkitpro/devkitPPC/lib/gcc/powerpc-eabi/4.8.2/../../../../powerpc-eabi/lib/libc.a(lib_a-fvwrite.o)
 .comment       0x0000000000000000       0x23 /opt/devkitpro/devkitPPC/lib/gcc/powerpc-eabi/4.8.2/../../../../powerpc-eabi/lib/libc.a(lib_a-fvwrite.o)
 .text          0x0000000000000000        0x0 /opt/devkitpro/devkitPPC/lib/gcc/powerpc-eabi/4.8.2/../../../../powerpc-eabi/lib/libc.a(lib_a-locale.o)
 .data          0x0000000000000000        0x0 /opt/devkitpro/devkitPPC/lib/gcc/powerpc-eabi/4.8.2/../../../../powerpc-eabi/lib/libc.a(lib_a-locale.o)
 .bss           0x0000000000000000        0x0 /opt/devkitpro/devkitPPC/lib/gcc/powerpc-eabi/4.8.2/../../../../powerpc-eabi/lib/libc.a(lib_a-locale.o)
 .text.__get_locale_env
                0x0000000000000000       0xac /opt/devkitpro/devkitPPC/lib/gcc/powerpc-eabi/4.8.2/../../../../powerpc-eabi/lib/libc.a(lib_a-locale.o)
 .text.loadlocale
                0x0000000000000000      0x854 /opt/devkitpro/devkitPPC/lib/gcc/powerpc-eabi/4.8.2/../../../../powerpc-eabi/lib/libc.a(lib_a-locale.o)
 .rodata.loadlocale
                0x0000000000000000       0xd4 /opt/devkitpro/devkitPPC/lib/gcc/powerpc-eabi/4.8.2/../../../../powerpc-eabi/lib/libc.a(lib_a-locale.o)
 .text.currentlocale
                0x0000000000000000       0xec /opt/devkitpro/devkitPPC/lib/gcc/powerpc-eabi/4.8.2/../../../../powerpc-eabi/lib/libc.a(lib_a-locale.o)
 .text._setlocale_r
                0x0000000000000000      0x3e0 /opt/devkitpro/devkitPPC/lib/gcc/powerpc-eabi/4.8.2/../../../../powerpc-eabi/lib/libc.a(lib_a-locale.o)
 .text.__locale_charset
                0x0000000000000000        0xc /opt/devkitpro/devkitPPC/lib/gcc/powerpc-eabi/4.8.2/../../../../powerpc-eabi/lib/libc.a(lib_a-locale.o)
 .text.__locale_mb_cur_max
                0x0000000000000000        0xc /opt/devkitpro/devkitPPC/lib/gcc/powerpc-eabi/4.8.2/../../../../powerpc-eabi/lib/libc.a(lib_a-locale.o)
 .text.__locale_msgcharset
                0x0000000000000000        0xc /opt/devkitpro/devkitPPC/lib/gcc/powerpc-eabi/4.8.2/../../../../powerpc-eabi/lib/libc.a(lib_a-locale.o)
 .text.__locale_cjk_lang
                0x0000000000000000        0xc /opt/devkitpro/devkitPPC/lib/gcc/powerpc-eabi/4.8.2/../../../../powerpc-eabi/lib/libc.a(lib_a-locale.o)
 .text._localeconv_r
                0x0000000000000000        0xc /opt/devkitpro/devkitPPC/lib/gcc/powerpc-eabi/4.8.2/../../../../powerpc-eabi/lib/libc.a(lib_a-locale.o)
 .text.setlocale
                0x0000000000000000       0x18 /opt/devkitpro/devkitPPC/lib/gcc/powerpc-eabi/4.8.2/../../../../powerpc-eabi/lib/libc.a(lib_a-locale.o)
 .text.localeconv
                0x0000000000000000        0xc /opt/devkitpro/devkitPPC/lib/gcc/powerpc-eabi/4.8.2/../../../../powerpc-eabi/lib/libc.a(lib_a-locale.o)
 .sbss._PathLocale
                0x0000000000000000        0x4 /opt/devkitpro/devkitPPC/lib/gcc/powerpc-eabi/4.8.2/../../../../powerpc-eabi/lib/libc.a(lib_a-locale.o)
 .bss.lc_ctype_cjk_lang
                0x0000000000000000        0x4 /opt/devkitpro/devkitPPC/lib/gcc/powerpc-eabi/4.8.2/../../../../powerpc-eabi/lib/libc.a(lib_a-locale.o)
 .sbss.__mlocale_changed
                0x0000000000000000        0x4 /opt/devkitpro/devkitPPC/lib/gcc/powerpc-eabi/4.8.2/../../../../powerpc-eabi/lib/libc.a(lib_a-locale.o)
 .data.lconv    0x0000000000000000       0x38 /opt/devkitpro/devkitPPC/lib/gcc/powerpc-eabi/4.8.2/../../../../powerpc-eabi/lib/libc.a(lib_a-locale.o)
 .data.current_categories
                0x0000000000000000       0xe0 /opt/devkitpro/devkitPPC/lib/gcc/powerpc-eabi/4.8.2/../../../../powerpc-eabi/lib/libc.a(lib_a-locale.o)
 .data.lc_ctype_charset
                0x0000000000000000       0x20 /opt/devkitpro/devkitPPC/lib/gcc/powerpc-eabi/4.8.2/../../../../powerpc-eabi/lib/libc.a(lib_a-locale.o)
 .rodata.str1.4
                0x0000000000000000      0x12d /opt/devkitpro/devkitPPC/lib/gcc/powerpc-eabi/4.8.2/../../../../powerpc-eabi/lib/libc.a(lib_a-locale.o)
 .bss.new_categories
                0x0000000000000000       0xe0 /opt/devkitpro/devkitPPC/lib/gcc/powerpc-eabi/4.8.2/../../../../powerpc-eabi/lib/libc.a(lib_a-locale.o)
 .data.__default_locale
                0x0000000000000000       0x20 /opt/devkitpro/devkitPPC/lib/gcc/powerpc-eabi/4.8.2/../../../../powerpc-eabi/lib/libc.a(lib_a-locale.o)
 .rodata.categories
                0x0000000000000000       0x1c /opt/devkitpro/devkitPPC/lib/gcc/powerpc-eabi/4.8.2/../../../../powerpc-eabi/lib/libc.a(lib_a-locale.o)
 .data.lc_message_charset
                0x0000000000000000       0x20 /opt/devkitpro/devkitPPC/lib/gcc/powerpc-eabi/4.8.2/../../../../powerpc-eabi/lib/libc.a(lib_a-locale.o)
 .sdata.__mb_cur_max
                0x0000000000000000        0x4 /opt/devkitpro/devkitPPC/lib/gcc/powerpc-eabi/4.8.2/../../../../powerpc-eabi/lib/libc.a(lib_a-locale.o)
 .bss.current_locale_string
                0x0000000000000000       0xe7 /opt/devkitpro/devkitPPC/lib/gcc/powerpc-eabi/4.8.2/../../../../powerpc-eabi/lib/libc.a(lib_a-locale.o)
 .sbss.__nlocale_changed
                0x0000000000000000        0x4 /opt/devkitpro/devkitPPC/lib/gcc/powerpc-eabi/4.8.2/../../../../powerpc-eabi/lib/libc.a(lib_a-locale.o)
 .bss.saved_categories
                0x0000000000000000       0xe0 /opt/devkitpro/devkitPPC/lib/gcc/powerpc-eabi/4.8.2/../../../../powerpc-eabi/lib/libc.a(lib_a-locale.o)
 .comment       0x0000000000000000       0x23 /opt/devkitpro/devkitPPC/lib/gcc/powerpc-eabi/4.8.2/../../../../powerpc-eabi/lib/libc.a(lib_a-locale.o)
 .text          0x0000000000000000        0x0 /opt/devkitpro/devkitPPC/lib/gcc/powerpc-eabi/4.8.2/../../../../powerpc-eabi/lib/libc.a(lib_a-mbtowc_r.o)
 .data          0x0000000000000000        0x0 /opt/devkitpro/devkitPPC/lib/gcc/powerpc-eabi/4.8.2/../../../../powerpc-eabi/lib/libc.a(lib_a-mbtowc_r.o)
 .bss           0x0000000000000000        0x0 /opt/devkitpro/devkitPPC/lib/gcc/powerpc-eabi/4.8.2/../../../../powerpc-eabi/lib/libc.a(lib_a-mbtowc_r.o)
 .text.__utf8_mbtowc
                0x0000000000000000      0x324 /opt/devkitpro/devkitPPC/lib/gcc/powerpc-eabi/4.8.2/../../../../powerpc-eabi/lib/libc.a(lib_a-mbtowc_r.o)
 .text._mbtowc_r
                0x0000000000000000       0x70 /opt/devkitpro/devkitPPC/lib/gcc/powerpc-eabi/4.8.2/../../../../powerpc-eabi/lib/libc.a(lib_a-mbtowc_r.o)
 .text.__ascii_mbtowc
                0x0000000000000000       0x58 /opt/devkitpro/devkitPPC/lib/gcc/powerpc-eabi/4.8.2/../../../../powerpc-eabi/lib/libc.a(lib_a-mbtowc_r.o)
 .text.__sjis_mbtowc
                0x0000000000000000       0xec /opt/devkitpro/devkitPPC/lib/gcc/powerpc-eabi/4.8.2/../../../../powerpc-eabi/lib/libc.a(lib_a-mbtowc_r.o)
 .text.__eucjp_mbtowc
                0x0000000000000000      0x148 /opt/devkitpro/devkitPPC/lib/gcc/powerpc-eabi/4.8.2/../../../../powerpc-eabi/lib/libc.a(lib_a-mbtowc_r.o)
 .text.__jis_mbtowc
                0x0000000000000000      0x23c /opt/devkitpro/devkitPPC/lib/gcc/powerpc-eabi/4.8.2/../../../../powerpc-eabi/lib/libc.a(lib_a-mbtowc_r.o)
 .rodata.__jis_mbtowc
                0x0000000000000000       0x18 /opt/devkitpro/devkitPPC/lib/gcc/powerpc-eabi/4.8.2/../../../../powerpc-eabi/lib/libc.a(lib_a-mbtowc_r.o)
 .rodata.JIS_state_table
                0x0000000000000000       0x48 /opt/devkitpro/devkitPPC/lib/gcc/powerpc-eabi/4.8.2/../../../../powerpc-eabi/lib/libc.a(lib_a-mbtowc_r.o)
 .sdata.__mbtowc
                0x0000000000000000        0x4 /opt/devkitpro/devkitPPC/lib/gcc/powerpc-eabi/4.8.2/../../../../powerpc-eabi/lib/libc.a(lib_a-mbtowc_r.o)
 .rodata.JIS_action_table
                0x0000000000000000       0x48 /opt/devkitpro/devkitPPC/lib/gcc/powerpc-eabi/4.8.2/../../../../powerpc-eabi/lib/libc.a(lib_a-mbtowc_r.o)
 .comment       0x0000000000000000       0x23 /opt/devkitpro/devkitPPC/lib/gcc/powerpc-eabi/4.8.2/../../../../powerpc-eabi/lib/libc.a(lib_a-mbtowc_r.o)
 .text          0x0000000000000000        0x0 /opt/devkitpro/devkitPPC/lib/gcc/powerpc-eabi/4.8.2/../../../../powerpc-eabi/lib/libc.a(lib_a-memchr.o)
 .data          0x0000000000000000        0x0 /opt/devkitpro/devkitPPC/lib/gcc/powerpc-eabi/4.8.2/../../../../powerpc-eabi/lib/libc.a(lib_a-memchr.o)
 .bss           0x0000000000000000        0x0 /opt/devkitpro/devkitPPC/lib/gcc/powerpc-eabi/4.8.2/../../../../powerpc-eabi/lib/libc.a(lib_a-memchr.o)
 .comment       0x0000000000000000       0x23 /opt/devkitpro/devkitPPC/lib/gcc/powerpc-eabi/4.8.2/../../../../powerpc-eabi/lib/libc.a(lib_a-memchr.o)
 .text          0x0000000000000000        0x0 /opt/devkitpro/devkitPPC/lib/gcc/powerpc-eabi/4.8.2/../../../../powerpc-eabi/lib/libc.a(lib_a-memmove.o)
 .data          0x0000000000000000        0x0 /opt/devkitpro/devkitPPC/lib/gcc/powerpc-eabi/4.8.2/../../../../powerpc-eabi/lib/libc.a(lib_a-memmove.o)
 .bss           0x0000000000000000        0x0 /opt/devkitpro/devkitPPC/lib/gcc/powerpc-eabi/4.8.2/../../../../powerpc-eabi/lib/libc.a(lib_a-memmove.o)
 .comment       0x0000000000000000       0x23 /opt/devkitpro/devkitPPC/lib/gcc/powerpc-eabi/4.8.2/../../../../powerpc-eabi/lib/libc.a(lib_a-memmove.o)
 .text          0x0000000000000000        0x0 /opt/devkitpro/devkitPPC/lib/gcc/powerpc-eabi/4.8.2/../../../../powerpc-eabi/lib/libc.a(lib_a-mprec.o)
 .data          0x0000000000000000        0x0 /opt/devkitpro/devkitPPC/lib/gcc/powerpc-eabi/4.8.2/../../../../powerpc-eabi/lib/libc.a(lib_a-mprec.o)
 .bss           0x0000000000000000        0x0 /opt/devkitpro/devkitPPC/lib/gcc/powerpc-eabi/4.8.2/../../../../powerpc-eabi/lib/libc.a(lib_a-mprec.o)
 .text._Balloc  0x0000000000000000       0xbc /opt/devkitpro/devkitPPC/lib/gcc/powerpc-eabi/4.8.2/../../../../powerpc-eabi/lib/libc.a(lib_a-mprec.o)
 .text._Bfree   0x0000000000000000       0x24 /opt/devkitpro/devkitPPC/lib/gcc/powerpc-eabi/4.8.2/../../../../powerpc-eabi/lib/libc.a(lib_a-mprec.o)
 .text.__multadd
                0x0000000000000000      0x120 /opt/devkitpro/devkitPPC/lib/gcc/powerpc-eabi/4.8.2/../../../../powerpc-eabi/lib/libc.a(lib_a-mprec.o)
 .text.__s2b    0x0000000000000000      0x144 /opt/devkitpro/devkitPPC/lib/gcc/powerpc-eabi/4.8.2/../../../../powerpc-eabi/lib/libc.a(lib_a-mprec.o)
 .text.__hi0bits
                0x0000000000000000       0x70 /opt/devkitpro/devkitPPC/lib/gcc/powerpc-eabi/4.8.2/../../../../powerpc-eabi/lib/libc.a(lib_a-mprec.o)
 .text.__lo0bits
                0x0000000000000000       0xb4 /opt/devkitpro/devkitPPC/lib/gcc/powerpc-eabi/4.8.2/../../../../powerpc-eabi/lib/libc.a(lib_a-mprec.o)
 .text.__i2b    0x0000000000000000       0x3c /opt/devkitpro/devkitPPC/lib/gcc/powerpc-eabi/4.8.2/../../../../powerpc-eabi/lib/libc.a(lib_a-mprec.o)
 .text.__multiply
                0x0000000000000000      0x228 /opt/devkitpro/devkitPPC/lib/gcc/powerpc-eabi/4.8.2/../../../../powerpc-eabi/lib/libc.a(lib_a-mprec.o)
 .text.__pow5mult
                0x0000000000000000      0x154 /opt/devkitpro/devkitPPC/lib/gcc/powerpc-eabi/4.8.2/../../../../powerpc-eabi/lib/libc.a(lib_a-mprec.o)
 .text.__lshift
                0x0000000000000000      0x15c /opt/devkitpro/devkitPPC/lib/gcc/powerpc-eabi/4.8.2/../../../../powerpc-eabi/lib/libc.a(lib_a-mprec.o)
 .text.__mcmp   0x0000000000000000       0x60 /opt/devkitpro/devkitPPC/lib/gcc/powerpc-eabi/4.8.2/../../../../powerpc-eabi/lib/libc.a(lib_a-mprec.o)
 .text.__mdiff  0x0000000000000000      0x1b8 /opt/devkitpro/devkitPPC/lib/gcc/powerpc-eabi/4.8.2/../../../../powerpc-eabi/lib/libc.a(lib_a-mprec.o)
 .text.__ulp    0x0000000000000000       0x98 /opt/devkitpro/devkitPPC/lib/gcc/powerpc-eabi/4.8.2/../../../../powerpc-eabi/lib/libc.a(lib_a-mprec.o)
 .text.__b2d    0x0000000000000000      0x154 /opt/devkitpro/devkitPPC/lib/gcc/powerpc-eabi/4.8.2/../../../../powerpc-eabi/lib/libc.a(lib_a-mprec.o)
 .text.__d2b    0x0000000000000000      0x188 /opt/devkitpro/devkitPPC/lib/gcc/powerpc-eabi/4.8.2/../../../../powerpc-eabi/lib/libc.a(lib_a-mprec.o)
 .text.__ratio  0x0000000000000000       0xd8 /opt/devkitpro/devkitPPC/lib/gcc/powerpc-eabi/4.8.2/../../../../powerpc-eabi/lib/libc.a(lib_a-mprec.o)
 .text._mprec_log10
                0x0000000000000000       0x3c /opt/devkitpro/devkitPPC/lib/gcc/powerpc-eabi/4.8.2/../../../../powerpc-eabi/lib/libc.a(lib_a-mprec.o)
 .text.__copybits
                0x0000000000000000       0x78 /opt/devkitpro/devkitPPC/lib/gcc/powerpc-eabi/4.8.2/../../../../powerpc-eabi/lib/libc.a(lib_a-mprec.o)
 .text.__any_on
                0x0000000000000000       0x94 /opt/devkitpro/devkitPPC/lib/gcc/powerpc-eabi/4.8.2/../../../../powerpc-eabi/lib/libc.a(lib_a-mprec.o)
 .rodata.cst4   0x0000000000000000        0x8 /opt/devkitpro/devkitPPC/lib/gcc/powerpc-eabi/4.8.2/../../../../powerpc-eabi/lib/libc.a(lib_a-mprec.o)
 .rodata.__mprec_tens
                0x0000000000000000       0xc8 /opt/devkitpro/devkitPPC/lib/gcc/powerpc-eabi/4.8.2/../../../../powerpc-eabi/lib/libc.a(lib_a-mprec.o)
 .rodata.__mprec_bigtens
                0x0000000000000000       0x28 /opt/devkitpro/devkitPPC/lib/gcc/powerpc-eabi/4.8.2/../../../../powerpc-eabi/lib/libc.a(lib_a-mprec.o)
 .rodata.__mprec_tinytens
                0x0000000000000000       0x28 /opt/devkitpro/devkitPPC/lib/gcc/powerpc-eabi/4.8.2/../../../../powerpc-eabi/lib/libc.a(lib_a-mprec.o)
 .rodata.p05.2612
                0x0000000000000000        0xc /opt/devkitpro/devkitPPC/lib/gcc/powerpc-eabi/4.8.2/../../../../powerpc-eabi/lib/libc.a(lib_a-mprec.o)
 .comment       0x0000000000000000       0x23 /opt/devkitpro/devkitPPC/lib/gcc/powerpc-eabi/4.8.2/../../../../powerpc-eabi/lib/libc.a(lib_a-mprec.o)
 .gnu.attributes
                0x0000000000000000       0x10 /opt/devkitpro/devkitPPC/lib/gcc/powerpc-eabi/4.8.2/../../../../powerpc-eabi/lib/libc.a(lib_a-mprec.o)
 .text          0x0000000000000000        0x0 /opt/devkitpro/devkitPPC/lib/gcc/powerpc-eabi/4.8.2/../../../../powerpc-eabi/lib/libc.a(lib_a-s_fpclassify.o)
 .data          0x0000000000000000        0x0 /opt/devkitpro/devkitPPC/lib/gcc/powerpc-eabi/4.8.2/../../../../powerpc-eabi/lib/libc.a(lib_a-s_fpclassify.o)
 .bss           0x0000000000000000        0x0 /opt/devkitpro/devkitPPC/lib/gcc/powerpc-eabi/4.8.2/../../../../powerpc-eabi/lib/libc.a(lib_a-s_fpclassify.o)
 .text.__fpclassifyd
                0x0000000000000000       0x94 /opt/devkitpro/devkitPPC/lib/gcc/powerpc-eabi/4.8.2/../../../../powerpc-eabi/lib/libc.a(lib_a-s_fpclassify.o)
 .comment       0x0000000000000000       0x23 /opt/devkitpro/devkitPPC/lib/gcc/powerpc-eabi/4.8.2/../../../../powerpc-eabi/lib/libc.a(lib_a-s_fpclassify.o)
 .gnu.attributes
                0x0000000000000000       0x10 /opt/devkitpro/devkitPPC/lib/gcc/powerpc-eabi/4.8.2/../../../../powerpc-eabi/lib/libc.a(lib_a-s_fpclassify.o)
 .text          0x0000000000000000        0x0 /opt/devkitpro/devkitPPC/lib/gcc/powerpc-eabi/4.8.2/../../../../powerpc-eabi/lib/libc.a(lib_a-strcasecmp.o)
 .data          0x0000000000000000        0x0 /opt/devkitpro/devkitPPC/lib/gcc/powerpc-eabi/4.8.2/../../../../powerpc-eabi/lib/libc.a(lib_a-strcasecmp.o)
 .bss           0x0000000000000000        0x0 /opt/devkitpro/devkitPPC/lib/gcc/powerpc-eabi/4.8.2/../../../../powerpc-eabi/lib/libc.a(lib_a-strcasecmp.o)
 .text.strcasecmp
                0x0000000000000000       0x8c /opt/devkitpro/devkitPPC/lib/gcc/powerpc-eabi/4.8.2/../../../../powerpc-eabi/lib/libc.a(lib_a-strcasecmp.o)
 .comment       0x0000000000000000       0x23 /opt/devkitpro/devkitPPC/lib/gcc/powerpc-eabi/4.8.2/../../../../powerpc-eabi/lib/libc.a(lib_a-strcasecmp.o)
 .text          0x0000000000000000        0x0 /opt/devkitpro/devkitPPC/lib/gcc/powerpc-eabi/4.8.2/../../../../powerpc-eabi/lib/libc.a(lib_a-strcat.o)
 .data          0x0000000000000000        0x0 /opt/devkitpro/devkitPPC/lib/gcc/powerpc-eabi/4.8.2/../../../../powerpc-eabi/lib/libc.a(lib_a-strcat.o)
 .bss           0x0000000000000000        0x0 /opt/devkitpro/devkitPPC/lib/gcc/powerpc-eabi/4.8.2/../../../../powerpc-eabi/lib/libc.a(lib_a-strcat.o)
 .text.strcat   0x0000000000000000       0x88 /opt/devkitpro/devkitPPC/lib/gcc/powerpc-eabi/4.8.2/../../../../powerpc-eabi/lib/libc.a(lib_a-strcat.o)
 .comment       0x0000000000000000       0x23 /opt/devkitpro/devkitPPC/lib/gcc/powerpc-eabi/4.8.2/../../../../powerpc-eabi/lib/libc.a(lib_a-strcat.o)
 .text          0x0000000000000000        0x0 /opt/devkitpro/devkitPPC/lib/gcc/powerpc-eabi/4.8.2/../../../../powerpc-eabi/lib/libc.a(lib_a-strlcpy.o)
 .data          0x0000000000000000        0x0 /opt/devkitpro/devkitPPC/lib/gcc/powerpc-eabi/4.8.2/../../../../powerpc-eabi/lib/libc.a(lib_a-strlcpy.o)
 .bss           0x0000000000000000        0x0 /opt/devkitpro/devkitPPC/lib/gcc/powerpc-eabi/4.8.2/../../../../powerpc-eabi/lib/libc.a(lib_a-strlcpy.o)
 .text.strlcpy  0x0000000000000000       0x78 /opt/devkitpro/devkitPPC/lib/gcc/powerpc-eabi/4.8.2/../../../../powerpc-eabi/lib/libc.a(lib_a-strlcpy.o)
 .comment       0x0000000000000000       0x23 /opt/devkitpro/devkitPPC/lib/gcc/powerpc-eabi/4.8.2/../../../../powerpc-eabi/lib/libc.a(lib_a-strlcpy.o)
 .text          0x0000000000000000        0x0 /opt/devkitpro/devkitPPC/lib/gcc/powerpc-eabi/4.8.2/../../../../powerpc-eabi/lib/libc.a(lib_a-strncasecmp.o)
 .data          0x0000000000000000        0x0 /opt/devkitpro/devkitPPC/lib/gcc/powerpc-eabi/4.8.2/../../../../powerpc-eabi/lib/libc.a(lib_a-strncasecmp.o)
 .bss           0x0000000000000000        0x0 /opt/devkitpro/devkitPPC/lib/gcc/powerpc-eabi/4.8.2/../../../../powerpc-eabi/lib/libc.a(lib_a-strncasecmp.o)
 .text.strncasecmp
                0x0000000000000000       0x80 /opt/devkitpro/devkitPPC/lib/gcc/powerpc-eabi/4.8.2/../../../../powerpc-eabi/lib/libc.a(lib_a-strncasecmp.o)
 .comment       0x0000000000000000       0x23 /opt/devkitpro/devkitPPC/lib/gcc/powerpc-eabi/4.8.2/../../../../powerpc-eabi/lib/libc.a(lib_a-strncasecmp.o)
 .text          0x0000000000000000        0x0 /opt/devkitpro/devkitPPC/lib/gcc/powerpc-eabi/4.8.2/../../../../powerpc-eabi/lib/libc.a(lib_a-strtol.o)
 .data          0x0000000000000000        0x0 /opt/devkitpro/devkitPPC/lib/gcc/powerpc-eabi/4.8.2/../../../../powerpc-eabi/lib/libc.a(lib_a-strtol.o)
 .bss           0x0000000000000000        0x0 /opt/devkitpro/devkitPPC/lib/gcc/powerpc-eabi/4.8.2/../../../../powerpc-eabi/lib/libc.a(lib_a-strtol.o)
 .text._strtol_r
                0x0000000000000000      0x21c /opt/devkitpro/devkitPPC/lib/gcc/powerpc-eabi/4.8.2/../../../../powerpc-eabi/lib/libc.a(lib_a-strtol.o)
 .text.strtol   0x0000000000000000       0x20 /opt/devkitpro/devkitPPC/lib/gcc/powerpc-eabi/4.8.2/../../../../powerpc-eabi/lib/libc.a(lib_a-strtol.o)
 .comment       0x0000000000000000       0x23 /opt/devkitpro/devkitPPC/lib/gcc/powerpc-eabi/4.8.2/../../../../powerpc-eabi/lib/libc.a(lib_a-strtol.o)
 .text          0x0000000000000000        0x0 /opt/devkitpro/devkitPPC/lib/gcc/powerpc-eabi/4.8.2/../../../../powerpc-eabi/lib/libc.a(lib_a-svfiprintf.o)
 .data          0x0000000000000000        0x0 /opt/devkitpro/devkitPPC/lib/gcc/powerpc-eabi/4.8.2/../../../../powerpc-eabi/lib/libc.a(lib_a-svfiprintf.o)
 .bss           0x0000000000000000        0x0 /opt/devkitpro/devkitPPC/lib/gcc/powerpc-eabi/4.8.2/../../../../powerpc-eabi/lib/libc.a(lib_a-svfiprintf.o)
 .text.__ssprint_r
                0x0000000000000000      0x264 /opt/devkitpro/devkitPPC/lib/gcc/powerpc-eabi/4.8.2/../../../../powerpc-eabi/lib/libc.a(lib_a-svfiprintf.o)
 .text._svfiprintf_r
                0x0000000000000000     0x1524 /opt/devkitpro/devkitPPC/lib/gcc/powerpc-eabi/4.8.2/../../../../powerpc-eabi/lib/libc.a(lib_a-svfiprintf.o)
 .rodata._svfiprintf_r
                0x0000000000000000      0x164 /opt/devkitpro/devkitPPC/lib/gcc/powerpc-eabi/4.8.2/../../../../powerpc-eabi/lib/libc.a(lib_a-svfiprintf.o)
 .rodata.cst4   0x0000000000000000        0x4 /opt/devkitpro/devkitPPC/lib/gcc/powerpc-eabi/4.8.2/../../../../powerpc-eabi/lib/libc.a(lib_a-svfiprintf.o)
 .rodata.blanks.4127
                0x0000000000000000       0x10 /opt/devkitpro/devkitPPC/lib/gcc/powerpc-eabi/4.8.2/../../../../powerpc-eabi/lib/libc.a(lib_a-svfiprintf.o)
 .rodata.str1.4
                0x0000000000000000       0x4b /opt/devkitpro/devkitPPC/lib/gcc/powerpc-eabi/4.8.2/../../../../powerpc-eabi/lib/libc.a(lib_a-svfiprintf.o)
 .rodata.zeroes.4128
                0x0000000000000000       0x10 /opt/devkitpro/devkitPPC/lib/gcc/powerpc-eabi/4.8.2/../../../../powerpc-eabi/lib/libc.a(lib_a-svfiprintf.o)
 .comment       0x0000000000000000       0x23 /opt/devkitpro/devkitPPC/lib/gcc/powerpc-eabi/4.8.2/../../../../powerpc-eabi/lib/libc.a(lib_a-svfiprintf.o)
 .text          0x0000000000000000        0x0 /opt/devkitpro/devkitPPC/lib/gcc/powerpc-eabi/4.8.2/../../../../powerpc-eabi/lib/libc.a(lib_a-wcsnrtombs.o)
 .data          0x0000000000000000        0x0 /opt/devkitpro/devkitPPC/lib/gcc/powerpc-eabi/4.8.2/../../../../powerpc-eabi/lib/libc.a(lib_a-wcsnrtombs.o)
 .bss           0x0000000000000000        0x0 /opt/devkitpro/devkitPPC/lib/gcc/powerpc-eabi/4.8.2/../../../../powerpc-eabi/lib/libc.a(lib_a-wcsnrtombs.o)
 .text._wcsnrtombs_r
                0x0000000000000000      0x214 /opt/devkitpro/devkitPPC/lib/gcc/powerpc-eabi/4.8.2/../../../../powerpc-eabi/lib/libc.a(lib_a-wcsnrtombs.o)
 .text.wcsnrtombs
                0x0000000000000000       0x30 /opt/devkitpro/devkitPPC/lib/gcc/powerpc-eabi/4.8.2/../../../../powerpc-eabi/lib/libc.a(lib_a-wcsnrtombs.o)
 .comment       0x0000000000000000       0x23 /opt/devkitpro/devkitPPC/lib/gcc/powerpc-eabi/4.8.2/../../../../powerpc-eabi/lib/libc.a(lib_a-wcsnrtombs.o)
 .text          0x0000000000000000        0x0 /opt/devkitpro/devkitPPC/lib/gcc/powerpc-eabi/4.8.2/../../../../powerpc-eabi/lib/libc.a(lib_a-wsetup.o)
 .data          0x0000000000000000        0x0 /opt/devkitpro/devkitPPC/lib/gcc/powerpc-eabi/4.8.2/../../../../powerpc-eabi/lib/libc.a(lib_a-wsetup.o)
 .bss           0x0000000000000000        0x0 /opt/devkitpro/devkitPPC/lib/gcc/powerpc-eabi/4.8.2/../../../../powerpc-eabi/lib/libc.a(lib_a-wsetup.o)
 .comment       0x0000000000000000       0x23 /opt/devkitpro/devkitPPC/lib/gcc/powerpc-eabi/4.8.2/../../../../powerpc-eabi/lib/libc.a(lib_a-wsetup.o)
 .text          0x0000000000000000        0x0 /opt/devkitpro/devkitPPC/lib/gcc/powerpc-eabi/4.8.2/../../../../powerpc-eabi/lib/libc.a(lib_a-ctype_.o)
 .data          0x0000000000000000        0x0 /opt/devkitpro/devkitPPC/lib/gcc/powerpc-eabi/4.8.2/../../../../powerpc-eabi/lib/libc.a(lib_a-ctype_.o)
 .bss           0x0000000000000000        0x0 /opt/devkitpro/devkitPPC/lib/gcc/powerpc-eabi/4.8.2/../../../../powerpc-eabi/lib/libc.a(lib_a-ctype_.o)
 .text.__set_ctype
                0x0000000000000000       0x14 /opt/devkitpro/devkitPPC/lib/gcc/powerpc-eabi/4.8.2/../../../../powerpc-eabi/lib/libc.a(lib_a-ctype_.o)
 .rodata._ctype_
                0x0000000000000000      0x101 /opt/devkitpro/devkitPPC/lib/gcc/powerpc-eabi/4.8.2/../../../../powerpc-eabi/lib/libc.a(lib_a-ctype_.o)
 .sdata.__ctype_ptr__
                0x0000000000000000        0x4 /opt/devkitpro/devkitPPC/lib/gcc/powerpc-eabi/4.8.2/../../../../powerpc-eabi/lib/libc.a(lib_a-ctype_.o)
 .comment       0x0000000000000000       0x23 /opt/devkitpro/devkitPPC/lib/gcc/powerpc-eabi/4.8.2/../../../../powerpc-eabi/lib/libc.a(lib_a-ctype_.o)
 .text          0x0000000000000000        0x0 /opt/devkitpro/devkitPPC/lib/gcc/powerpc-eabi/4.8.2/../../../../powerpc-eabi/lib/libc.a(lib_a-fflush.o)
 .data          0x0000000000000000        0x0 /opt/devkitpro/devkitPPC/lib/gcc/powerpc-eabi/4.8.2/../../../../powerpc-eabi/lib/libc.a(lib_a-fflush.o)
 .bss           0x0000000000000000        0x0 /opt/devkitpro/devkitPPC/lib/gcc/powerpc-eabi/4.8.2/../../../../powerpc-eabi/lib/libc.a(lib_a-fflush.o)
 .text.fflush   0x0000000000000000       0x28 /opt/devkitpro/devkitPPC/lib/gcc/powerpc-eabi/4.8.2/../../../../powerpc-eabi/lib/libc.a(lib_a-fflush.o)
 .comment       0x0000000000000000       0x23 /opt/devkitpro/devkitPPC/lib/gcc/powerpc-eabi/4.8.2/../../../../powerpc-eabi/lib/libc.a(lib_a-fflush.o)
 .text          0x0000000000000000        0x0 /opt/devkitpro/devkitPPC/lib/gcc/powerpc-eabi/4.8.2/../../../../powerpc-eabi/lib/libc.a(lib_a-findfp.o)
 .data          0x0000000000000000        0x0 /opt/devkitpro/devkitPPC/lib/gcc/powerpc-eabi/4.8.2/../../../../powerpc-eabi/lib/libc.a(lib_a-findfp.o)
 .bss           0x0000000000000000        0x0 /opt/devkitpro/devkitPPC/lib/gcc/powerpc-eabi/4.8.2/../../../../powerpc-eabi/lib/libc.a(lib_a-findfp.o)
 .text.__fp_lock
                0x0000000000000000       0x38 /opt/devkitpro/devkitPPC/lib/gcc/powerpc-eabi/4.8.2/../../../../powerpc-eabi/lib/libc.a(lib_a-findfp.o)
 .text.__fp_unlock
                0x0000000000000000       0x38 /opt/devkitpro/devkitPPC/lib/gcc/powerpc-eabi/4.8.2/../../../../powerpc-eabi/lib/libc.a(lib_a-findfp.o)
 .text.__sfmoreglue
                0x0000000000000000       0x70 /opt/devkitpro/devkitPPC/lib/gcc/powerpc-eabi/4.8.2/../../../../powerpc-eabi/lib/libc.a(lib_a-findfp.o)
 .text._cleanup
                0x0000000000000000       0x14 /opt/devkitpro/devkitPPC/lib/gcc/powerpc-eabi/4.8.2/../../../../powerpc-eabi/lib/libc.a(lib_a-findfp.o)
 .text.__sfp    0x0000000000000000      0x154 /opt/devkitpro/devkitPPC/lib/gcc/powerpc-eabi/4.8.2/../../../../powerpc-eabi/lib/libc.a(lib_a-findfp.o)
 .text.__sinit_lock_release
                0x0000000000000000        0xc /opt/devkitpro/devkitPPC/lib/gcc/powerpc-eabi/4.8.2/../../../../powerpc-eabi/lib/libc.a(lib_a-findfp.o)
 .text.__fp_lock_all
                0x0000000000000000       0x30 /opt/devkitpro/devkitPPC/lib/gcc/powerpc-eabi/4.8.2/../../../../powerpc-eabi/lib/libc.a(lib_a-findfp.o)
 .text.__fp_unlock_all
                0x0000000000000000       0x38 /opt/devkitpro/devkitPPC/lib/gcc/powerpc-eabi/4.8.2/../../../../powerpc-eabi/lib/libc.a(lib_a-findfp.o)
 .comment       0x0000000000000000       0x23 /opt/devkitpro/devkitPPC/lib/gcc/powerpc-eabi/4.8.2/../../../../powerpc-eabi/lib/libc.a(lib_a-findfp.o)
 .text          0x0000000000000000        0x0 /opt/devkitpro/devkitPPC/lib/gcc/powerpc-eabi/4.8.2/../../../../powerpc-eabi/lib/libc.a(lib_a-fwalk.o)
 .data          0x0000000000000000        0x0 /opt/devkitpro/devkitPPC/lib/gcc/powerpc-eabi/4.8.2/../../../../powerpc-eabi/lib/libc.a(lib_a-fwalk.o)
 .bss           0x0000000000000000        0x0 /opt/devkitpro/devkitPPC/lib/gcc/powerpc-eabi/4.8.2/../../../../powerpc-eabi/lib/libc.a(lib_a-fwalk.o)
 .text._fwalk_reent
                0x0000000000000000       0xec /opt/devkitpro/devkitPPC/lib/gcc/powerpc-eabi/4.8.2/../../../../powerpc-eabi/lib/libc.a(lib_a-fwalk.o)
 .comment       0x0000000000000000       0x23 /opt/devkitpro/devkitPPC/lib/gcc/powerpc-eabi/4.8.2/../../../../powerpc-eabi/lib/libc.a(lib_a-fwalk.o)
 .text          0x0000000000000000        0x0 /opt/devkitpro/devkitPPC/lib/gcc/powerpc-eabi/4.8.2/../../../../powerpc-eabi/lib/libc.a(lib_a-getenv_r.o)
 .data          0x0000000000000000        0x0 /opt/devkitpro/devkitPPC/lib/gcc/powerpc-eabi/4.8.2/../../../../powerpc-eabi/lib/libc.a(lib_a-getenv_r.o)
 .bss           0x0000000000000000        0x0 /opt/devkitpro/devkitPPC/lib/gcc/powerpc-eabi/4.8.2/../../../../powerpc-eabi/lib/libc.a(lib_a-getenv_r.o)
 .text._findenv_r
                0x0000000000000000      0x144 /opt/devkitpro/devkitPPC/lib/gcc/powerpc-eabi/4.8.2/../../../../powerpc-eabi/lib/libc.a(lib_a-getenv_r.o)
 .text._getenv_r
                0x0000000000000000       0x24 /opt/devkitpro/devkitPPC/lib/gcc/powerpc-eabi/4.8.2/../../../../powerpc-eabi/lib/libc.a(lib_a-getenv_r.o)
 .comment       0x0000000000000000       0x23 /opt/devkitpro/devkitPPC/lib/gcc/powerpc-eabi/4.8.2/../../../../powerpc-eabi/lib/libc.a(lib_a-getenv_r.o)
 .text          0x0000000000000000        0x0 /opt/devkitpro/devkitPPC/lib/gcc/powerpc-eabi/4.8.2/../../../../powerpc-eabi/lib/libc.a(lib_a-makebuf.o)
 .data          0x0000000000000000        0x0 /opt/devkitpro/devkitPPC/lib/gcc/powerpc-eabi/4.8.2/../../../../powerpc-eabi/lib/libc.a(lib_a-makebuf.o)
 .bss           0x0000000000000000        0x0 /opt/devkitpro/devkitPPC/lib/gcc/powerpc-eabi/4.8.2/../../../../powerpc-eabi/lib/libc.a(lib_a-makebuf.o)
 .comment       0x0000000000000000       0x23 /opt/devkitpro/devkitPPC/lib/gcc/powerpc-eabi/4.8.2/../../../../powerpc-eabi/lib/libc.a(lib_a-makebuf.o)
 .text          0x0000000000000000        0x0 /opt/devkitpro/devkitPPC/lib/gcc/powerpc-eabi/4.8.2/../../../../powerpc-eabi/lib/libc.a(lib_a-stdio.o)
 .data          0x0000000000000000        0x0 /opt/devkitpro/devkitPPC/lib/gcc/powerpc-eabi/4.8.2/../../../../powerpc-eabi/lib/libc.a(lib_a-stdio.o)
 .bss           0x0000000000000000        0x0 /opt/devkitpro/devkitPPC/lib/gcc/powerpc-eabi/4.8.2/../../../../powerpc-eabi/lib/libc.a(lib_a-stdio.o)
 .text.__seofread
                0x0000000000000000        0x8 /opt/devkitpro/devkitPPC/lib/gcc/powerpc-eabi/4.8.2/../../../../powerpc-eabi/lib/libc.a(lib_a-stdio.o)
 .comment       0x0000000000000000       0x23 /opt/devkitpro/devkitPPC/lib/gcc/powerpc-eabi/4.8.2/../../../../powerpc-eabi/lib/libc.a(lib_a-stdio.o)
 .text          0x0000000000000000        0x0 /opt/devkitpro/devkitPPC/lib/gcc/powerpc-eabi/4.8.2/../../../../powerpc-eabi/lib/libc.a(lib_a-environ.o)
 .data          0x0000000000000000        0x0 /opt/devkitpro/devkitPPC/lib/gcc/powerpc-eabi/4.8.2/../../../../powerpc-eabi/lib/libc.a(lib_a-environ.o)
 .bss           0x0000000000000000        0x0 /opt/devkitpro/devkitPPC/lib/gcc/powerpc-eabi/4.8.2/../../../../powerpc-eabi/lib/libc.a(lib_a-environ.o)
 .bss.initial_env
                0x0000000000000000        0x4 /opt/devkitpro/devkitPPC/lib/gcc/powerpc-eabi/4.8.2/../../../../powerpc-eabi/lib/libc.a(lib_a-environ.o)
 .sdata.environ
                0x0000000000000000        0x4 /opt/devkitpro/devkitPPC/lib/gcc/powerpc-eabi/4.8.2/../../../../powerpc-eabi/lib/libc.a(lib_a-environ.o)
 .comment       0x0000000000000000       0x23 /opt/devkitpro/devkitPPC/lib/gcc/powerpc-eabi/4.8.2/../../../../powerpc-eabi/lib/libc.a(lib_a-environ.o)
 .text          0x0000000000000000        0x0 /opt/devkitpro/devkitPPC/lib/gcc/powerpc-eabi/4.8.2/../../../../powerpc-eabi/lib/libc.a(lib_a-envlock.o)
 .data          0x0000000000000000        0x0 /opt/devkitpro/devkitPPC/lib/gcc/powerpc-eabi/4.8.2/../../../../powerpc-eabi/lib/libc.a(lib_a-envlock.o)
 .bss           0x0000000000000000        0x0 /opt/devkitpro/devkitPPC/lib/gcc/powerpc-eabi/4.8.2/../../../../powerpc-eabi/lib/libc.a(lib_a-envlock.o)
 .text.__env_lock
                0x0000000000000000       0x48 /opt/devkitpro/devkitPPC/lib/gcc/powerpc-eabi/4.8.2/../../../../powerpc-eabi/lib/libc.a(lib_a-envlock.o)
 .text.__env_unlock
                0x0000000000000000        0xc /opt/devkitpro/devkitPPC/lib/gcc/powerpc-eabi/4.8.2/../../../../powerpc-eabi/lib/libc.a(lib_a-envlock.o)
 .bss.__env_lock_object
                0x0000000000000000        0x4 /opt/devkitpro/devkitPPC/lib/gcc/powerpc-eabi/4.8.2/../../../../powerpc-eabi/lib/libc.a(lib_a-envlock.o)
 .comment       0x0000000000000000       0x23 /opt/devkitpro/devkitPPC/lib/gcc/powerpc-eabi/4.8.2/../../../../powerpc-eabi/lib/libc.a(lib_a-envlock.o)
 .text          0x0000000000000000        0x0 /opt/devkitpro/devkitPPC/lib/gcc/powerpc-eabi/4.8.2/../../../../powerpc-eabi/lib/libc.a(lib_a-fclose.o)
 .data          0x0000000000000000        0x0 /opt/devkitpro/devkitPPC/lib/gcc/powerpc-eabi/4.8.2/../../../../powerpc-eabi/lib/libc.a(lib_a-fclose.o)
 .bss           0x0000000000000000        0x0 /opt/devkitpro/devkitPPC/lib/gcc/powerpc-eabi/4.8.2/../../../../powerpc-eabi/lib/libc.a(lib_a-fclose.o)
 .comment       0x0000000000000000       0x23 /opt/devkitpro/devkitPPC/lib/gcc/powerpc-eabi/4.8.2/../../../../powerpc-eabi/lib/libc.a(lib_a-fclose.o)
 .data          0x0000000000000000        0x0 /opt/devkitpro/devkitPPC/lib/gcc/powerpc-eabi/4.8.2/../../../../powerpc-eabi/lib/libsysbase.a(close.o)
 .bss           0x0000000000000000        0x0 /opt/devkitpro/devkitPPC/lib/gcc/powerpc-eabi/4.8.2/../../../../powerpc-eabi/lib/libsysbase.a(close.o)
 .comment       0x0000000000000000       0x23 /opt/devkitpro/devkitPPC/lib/gcc/powerpc-eabi/4.8.2/../../../../powerpc-eabi/lib/libsysbase.a(close.o)
 .data          0x0000000000000000        0x0 /opt/devkitpro/devkitPPC/lib/gcc/powerpc-eabi/4.8.2/../../../../powerpc-eabi/lib/libsysbase.a(fstat.o)
 .bss           0x0000000000000000        0x0 /opt/devkitpro/devkitPPC/lib/gcc/powerpc-eabi/4.8.2/../../../../powerpc-eabi/lib/libsysbase.a(fstat.o)
 .comment       0x0000000000000000       0x23 /opt/devkitpro/devkitPPC/lib/gcc/powerpc-eabi/4.8.2/../../../../powerpc-eabi/lib/libsysbase.a(fstat.o)
 .data          0x0000000000000000        0x0 /opt/devkitpro/devkitPPC/lib/gcc/powerpc-eabi/4.8.2/../../../../powerpc-eabi/lib/libsysbase.a(isatty.o)
 .bss           0x0000000000000000        0x0 /opt/devkitpro/devkitPPC/lib/gcc/powerpc-eabi/4.8.2/../../../../powerpc-eabi/lib/libsysbase.a(isatty.o)
 .comment       0x0000000000000000       0x23 /opt/devkitpro/devkitPPC/lib/gcc/powerpc-eabi/4.8.2/../../../../powerpc-eabi/lib/libsysbase.a(isatty.o)
 .data          0x0000000000000000        0x0 /opt/devkitpro/devkitPPC/lib/gcc/powerpc-eabi/4.8.2/../../../../powerpc-eabi/lib/libsysbase.a(lseek.o)
 .bss           0x0000000000000000        0x0 /opt/devkitpro/devkitPPC/lib/gcc/powerpc-eabi/4.8.2/../../../../powerpc-eabi/lib/libsysbase.a(lseek.o)
 .comment       0x0000000000000000       0x23 /opt/devkitpro/devkitPPC/lib/gcc/powerpc-eabi/4.8.2/../../../../powerpc-eabi/lib/libsysbase.a(lseek.o)
 .text          0x0000000000000000      0x14c /opt/devkitpro/devkitPPC/lib/gcc/powerpc-eabi/4.8.2/../../../../powerpc-eabi/lib/libsysbase.a(open.o)
 .data          0x0000000000000000        0x0 /opt/devkitpro/devkitPPC/lib/gcc/powerpc-eabi/4.8.2/../../../../powerpc-eabi/lib/libsysbase.a(open.o)
 .bss           0x0000000000000000        0x0 /opt/devkitpro/devkitPPC/lib/gcc/powerpc-eabi/4.8.2/../../../../powerpc-eabi/lib/libsysbase.a(open.o)
 .comment       0x0000000000000000       0x23 /opt/devkitpro/devkitPPC/lib/gcc/powerpc-eabi/4.8.2/../../../../powerpc-eabi/lib/libsysbase.a(open.o)
 .data          0x0000000000000000        0x0 /opt/devkitpro/devkitPPC/lib/gcc/powerpc-eabi/4.8.2/../../../../powerpc-eabi/lib/libsysbase.a(read.o)
 .bss           0x0000000000000000        0x0 /opt/devkitpro/devkitPPC/lib/gcc/powerpc-eabi/4.8.2/../../../../powerpc-eabi/lib/libsysbase.a(read.o)
 .comment       0x0000000000000000       0x23 /opt/devkitpro/devkitPPC/lib/gcc/powerpc-eabi/4.8.2/../../../../powerpc-eabi/lib/libsysbase.a(read.o)
 .text          0x0000000000000000       0xa4 /opt/devkitpro/devkitPPC/lib/gcc/powerpc-eabi/4.8.2/../../../../powerpc-eabi/lib/libsysbase.a(stat.o)
 .data          0x0000000000000000        0x0 /opt/devkitpro/devkitPPC/lib/gcc/powerpc-eabi/4.8.2/../../../../powerpc-eabi/lib/libsysbase.a(stat.o)
 .bss           0x0000000000000000        0x0 /opt/devkitpro/devkitPPC/lib/gcc/powerpc-eabi/4.8.2/../../../../powerpc-eabi/lib/libsysbase.a(stat.o)
 .comment       0x0000000000000000       0x23 /opt/devkitpro/devkitPPC/lib/gcc/powerpc-eabi/4.8.2/../../../../powerpc-eabi/lib/libsysbase.a(stat.o)
 .data          0x0000000000000000        0x0 /opt/devkitpro/devkitPPC/lib/gcc/powerpc-eabi/4.8.2/../../../../powerpc-eabi/lib/libsysbase.a(write.o)
 .bss           0x0000000000000000        0x0 /opt/devkitpro/devkitPPC/lib/gcc/powerpc-eabi/4.8.2/../../../../powerpc-eabi/lib/libsysbase.a(write.o)
 .comment       0x0000000000000000       0x23 /opt/devkitpro/devkitPPC/lib/gcc/powerpc-eabi/4.8.2/../../../../powerpc-eabi/lib/libsysbase.a(write.o)
 .data          0x0000000000000000        0x0 /opt/devkitpro/devkitPPC/lib/gcc/powerpc-eabi/4.8.2/../../../../powerpc-eabi/lib/libsysbase.a(flock.o)
 .bss           0x0000000000000000        0x0 /opt/devkitpro/devkitPPC/lib/gcc/powerpc-eabi/4.8.2/../../../../powerpc-eabi/lib/libsysbase.a(flock.o)
 .comment       0x0000000000000000       0x23 /opt/devkitpro/devkitPPC/lib/gcc/powerpc-eabi/4.8.2/../../../../powerpc-eabi/lib/libsysbase.a(flock.o)
 .data          0x0000000000000000        0x0 /opt/devkitpro/devkitPPC/lib/gcc/powerpc-eabi/4.8.2/../../../../powerpc-eabi/lib/libsysbase.a(syscall_support.o)
 .comment       0x0000000000000000       0x23 /opt/devkitpro/devkitPPC/lib/gcc/powerpc-eabi/4.8.2/../../../../powerpc-eabi/lib/libsysbase.a(syscall_support.o)
 .data          0x0000000000000000        0x0 /opt/devkitpro/devkitPPC/lib/gcc/powerpc-eabi/4.8.2/../../../../powerpc-eabi/lib/libsysbase.a(handle_manager.o)
 .comment       0x0000000000000000       0x23 /opt/devkitpro/devkitPPC/lib/gcc/powerpc-eabi/4.8.2/../../../../powerpc-eabi/lib/libsysbase.a(handle_manager.o)
 .text          0x0000000000000000      0x414 /opt/devkitpro/devkitPPC/lib/gcc/powerpc-eabi/4.8.2/libgcc.a(_udivdi3.o)
 .data          0x0000000000000000        0x0 /opt/devkitpro/devkitPPC/lib/gcc/powerpc-eabi/4.8.2/libgcc.a(_udivdi3.o)
 .bss           0x0000000000000000        0x0 /opt/devkitpro/devkitPPC/lib/gcc/powerpc-eabi/4.8.2/libgcc.a(_udivdi3.o)
 .comment       0x0000000000000000       0x23 /opt/devkitpro/devkitPPC/lib/gcc/powerpc-eabi/4.8.2/libgcc.a(_udivdi3.o)
 .eh_frame      0x0000000000000000       0x54 /opt/devkitpro/devkitPPC/lib/gcc/powerpc-eabi/4.8.2/libgcc.a(_udivdi3.o)
 .text          0x0000000000000000      0x3b8 /opt/devkitpro/devkitPPC/lib/gcc/powerpc-eabi/4.8.2/libgcc.a(_umoddi3.o)
 .data          0x0000000000000000        0x0 /opt/devkitpro/devkitPPC/lib/gcc/powerpc-eabi/4.8.2/libgcc.a(_umoddi3.o)
 .bss           0x0000000000000000        0x0 /opt/devkitpro/devkitPPC/lib/gcc/powerpc-eabi/4.8.2/libgcc.a(_umoddi3.o)
 .comment       0x0000000000000000       0x23 /opt/devkitpro/devkitPPC/lib/gcc/powerpc-eabi/4.8.2/libgcc.a(_umoddi3.o)
 .eh_frame      0x0000000000000000       0x4c /opt/devkitpro/devkitPPC/lib/gcc/powerpc-eabi/4.8.2/libgcc.a(_umoddi3.o)

Memory Configuration

Name             Origin             Length             Attributes
*default*        0x0000000000000000 0xffffffffffffffff

Linker script and memory map

LOAD entry.o
LOAD main.o
LOAD acp_functions.o
LOAD aoc_functions.o
LOAD ax_functions.o
LOAD curl_functions.o
LOAD fs_functions.o
LOAD gx2_functions.o
LOAD os_functions.o
LOAD padscore_functions.o
LOAD socket_functions.o
LOAD sys_functions.o
LOAD syshid_functions.o
LOAD vpad_functions.o
LOAD fs_utils.o
LOAD sd_fat_devoptab.o
LOAD memory.o
LOAD font.o
LOAD tty.o
LOAD logger.o
LOAD /opt/devkitpro/devkitPPC/lib/gcc/powerpc-eabi/4.8.2/libgcc.a
START GROUP
LOAD /opt/devkitpro/devkitPPC/lib/gcc/powerpc-eabi/4.8.2/../../../../powerpc-eabi/lib/libsysbase.a
LOAD /opt/devkitpro/devkitPPC/lib/gcc/powerpc-eabi/4.8.2/../../../../powerpc-eabi/lib/libc.a
END GROUP
LOAD /opt/devkitpro/devkitPPC/lib/gcc/powerpc-eabi/4.8.2/libgcc.a
                0x0000000000802000                . = 0x802000

.text           0x0000000000802000     0xb8c0
 *(.text*)
 .text.__entry_menu
                0x0000000000802000       0x90 entry.o
                0x0000000000802000                __entry_menu
 .text.Menu_Main
                0x0000000000802090       0x90 main.o
                0x0000000000802090                Menu_Main
 .text.InitACPFunctionPointers
                0x0000000000802120       0x70 acp_functions.o
                0x0000000000802120                InitACPFunctionPointers
 .text.InitAocFunctionPointers
                0x0000000000802190      0x17c aoc_functions.o
                0x0000000000802190                InitAocFunctionPointers
 .text.InitAcquireAX
                0x000000000080230c      0x1c8 ax_functions.o
                0x000000000080230c                InitAcquireAX
 .text.InitAXFunctionPointers
                0x00000000008024d4      0x640 ax_functions.o
                0x00000000008024d4                InitAXFunctionPointers
 .text.InitCurlFunctionPointers
                0x0000000000802b14      0x2b8 curl_functions.o
                0x0000000000802b14                InitCurlFunctionPointers
 .text.InitFSFunctionPointers
                0x0000000000802dcc      0xee0 fs_functions.o
                0x0000000000802dcc                InitFSFunctionPointers
 .text.InitGX2FunctionPointers
                0x0000000000803cac     0x16f0 gx2_functions.o
                0x0000000000803cac                InitGX2FunctionPointers
 .text.InitOSFunctionPointers
                0x000000000080539c     0x1490 os_functions.o
                0x000000000080539c                InitOSFunctionPointers
 .text.InitPadScoreFunctionPointers
                0x000000000080682c      0x3a8 padscore_functions.o
                0x000000000080682c                InitPadScoreFunctionPointers
 .text.InitSocketFunctionPointers
                0x0000000000806bd4      0x630 socket_functions.o
                0x0000000000806bd4                InitSocketFunctionPointers
 .text.InitSysFunctionPointers
                0x0000000000807204      0x250 sys_functions.o
                0x0000000000807204                InitSysFunctionPointers
 .text.InitSysHIDFunctionPointers
                0x0000000000807454      0x50c syshid_functions.o
                0x0000000000807454                InitSysHIDFunctionPointers
 .text.InitVPadFunctionPointers
                0x0000000000807960      0x2c0 vpad_functions.o
                0x0000000000807960                InitVPadFunctionPointers
 .text.MountFS  0x0000000000807c20      0x154 fs_utils.o
                0x0000000000807c20                MountFS
 .text.UmountFS
                0x0000000000807d74       0x14 fs_utils.o
                0x0000000000807d74                UmountFS
 .text.sd_fat_close_r
                0x0000000000807d88       0xc4 sd_fat_devoptab.o
 .text.sd_fat_seek_r
                0x0000000000807e4c      0x18c sd_fat_devoptab.o
 .text.sd_fat_ftruncate_r
                0x0000000000807fd8       0xc4 sd_fat_devoptab.o
 .text.sd_fat_fsync_r
                0x000000000080809c       0xc4 sd_fat_devoptab.o
 .text.sd_fat_link_r
                0x0000000000808160       0x10 sd_fat_devoptab.o
 .text.sd_fat_dirclose_r
                0x0000000000808170       0xc4 sd_fat_devoptab.o
 .text.sd_fat_dirreset_r
                0x0000000000808234       0xc4 sd_fat_devoptab.o
 .text.sd_fat_dirnext_r
                0x00000000008082f8      0x19c sd_fat_devoptab.o
 .text.sd_fat_fstat_r
                0x0000000000808494      0x14c sd_fat_devoptab.o
 .text.sd_fat_read_r
                0x00000000008085e0      0x268 sd_fat_devoptab.o
 .text.sd_fat_write_r
                0x0000000000808848      0x2a0 sd_fat_devoptab.o
 .text.sd_fat_rename_r
                0x0000000000808ae8      0x29c sd_fat_devoptab.o
 .text.sd_fat_unlink_r
                0x0000000000808d84      0x208 sd_fat_devoptab.o
 .text.sd_fat_mkdir_r
                0x0000000000808f8c      0x208 sd_fat_devoptab.o
 .text.sd_fat_chdir_r
                0x0000000000809194      0x208 sd_fat_devoptab.o
 .text.sd_fat_diropen_r
                0x000000000080939c      0x228 sd_fat_devoptab.o
 .text.sd_fat_statvfs_r
                0x00000000008095c4      0x274 sd_fat_devoptab.o
 .text.sd_fat_open_r
                0x0000000000809838      0x348 sd_fat_devoptab.o
 .text.sd_fat_stat_r
                0x0000000000809b80      0x2bc sd_fat_devoptab.o
 .text.mount_sd_fat
                0x0000000000809e3c      0x3c0 sd_fat_devoptab.o
                0x0000000000809e3c                mount_sd_fat
 .text.unmount_sd_fat
                0x000000000080a1fc      0x1d0 sd_fat_devoptab.o
                0x000000000080a1fc                unmount_sd_fat
 .text.memory_init
                0x000000000080a3cc      0x120 memory.o
                0x000000000080a3cc                memory_init
 .text.memory_end
                0x000000000080a4ec       0xcc memory.o
                0x000000000080a4ec                memory_end
 .text.__wrap_malloc
                0x000000000080a5b8       0x14 memory.o
                0x000000000080a5b8                __wrap_malloc
 .text.__wrap_memalign
                0x000000000080a5cc       0x2c memory.o
                0x000000000080a5cc                __wrap_memalign
 .text.__wrap_free
                0x000000000080a5f8       0x1c memory.o
                0x000000000080a5f8                __wrap_free
 .text.__wrap__malloc_r
                0x000000000080a614       0x18 memory.o
                0x000000000080a614                __wrap__malloc_r
 .text.__wrap__free_r
                0x000000000080a62c       0x1c memory.o
                0x000000000080a62c                __wrap__free_r
 .text.__wrap__realloc_r
                0x000000000080a648       0xa8 memory.o
                0x000000000080a648                __wrap__realloc_r
 .text.tty_write
                0x000000000080a6f0      0xd88 tty.o
 .text.tty_init
                0x000000000080b478      0x16c tty.o
                0x000000000080b478                tty_init
 .text.tty_end  0x000000000080b5e4       0xdc tty.o
                0x000000000080b5e4                tty_end
 .text.__errno  0x000000000080b6c0        0xc /opt/devkitpro/devkitPPC/lib/gcc/powerpc-eabi/4.8.2/../../../../powerpc-eabi/lib/libc.a(lib_a-errno.o)
                0x000000000080b6c0                __errno
 .text.memcpy   0x000000000080b6cc       0xf0 /opt/devkitpro/devkitPPC/lib/gcc/powerpc-eabi/4.8.2/../../../../powerpc-eabi/lib/libc.a(lib_a-memcpy.o)
                0x000000000080b6cc                memcpy
 .text.memset   0x000000000080b7bc      0x114 /opt/devkitpro/devkitPPC/lib/gcc/powerpc-eabi/4.8.2/../../../../powerpc-eabi/lib/libc.a(lib_a-memset.o)
                0x000000000080b7bc                memset
 .text._puts_r  0x000000000080b8d0       0xfc /opt/devkitpro/devkitPPC/lib/gcc/powerpc-eabi/4.8.2/../../../../powerpc-eabi/lib/libc.a(lib_a-puts.o)
                0x000000000080b8d0                _puts_r
 .text.puts     0x000000000080b9cc       0x10 /opt/devkitpro/devkitPPC/lib/gcc/powerpc-eabi/4.8.2/../../../../powerpc-eabi/lib/libc.a(lib_a-puts.o)
                0x000000000080b9cc                puts
 .text.strchr   0x000000000080b9dc      0x180 /opt/devkitpro/devkitPPC/lib/gcc/powerpc-eabi/4.8.2/../../../../powerpc-eabi/lib/libc.a(lib_a-strchr.o)
                0x000000000080b9dc                strchr
 .text.strcmp   0x000000000080bb5c       0xa8 /opt/devkitpro/devkitPPC/lib/gcc/powerpc-eabi/4.8.2/../../../../powerpc-eabi/lib/libc.a(lib_a-strcmp.o)
                0x000000000080bb5c                strcmp
 .text.strcpy   0x000000000080bc04       0x70 /opt/devkitpro/devkitPPC/lib/gcc/powerpc-eabi/4.8.2/../../../../powerpc-eabi/lib/libc.a(lib_a-strcpy.o)
                0x000000000080bc04                strcpy
 .text.strlen   0x000000000080bc74       0x9c /opt/devkitpro/devkitPPC/lib/gcc/powerpc-eabi/4.8.2/../../../../powerpc-eabi/lib/libc.a(lib_a-strlen.o)
                0x000000000080bc74                strlen
 .text.strncpy  0x000000000080bd10       0xe0 /opt/devkitpro/devkitPPC/lib/gcc/powerpc-eabi/4.8.2/../../../../powerpc-eabi/lib/libc.a(lib_a-strncpy.o)
                0x000000000080bd10                strncpy
 .text.strtok   0x000000000080bdf0       0x14 /opt/devkitpro/devkitPPC/lib/gcc/powerpc-eabi/4.8.2/../../../../powerpc-eabi/lib/libc.a(lib_a-strtok.o)
                0x000000000080bdf0                strtok
 .text.__strtok_r
                0x000000000080be04       0xd0 /opt/devkitpro/devkitPPC/lib/gcc/powerpc-eabi/4.8.2/../../../../powerpc-eabi/lib/libc.a(lib_a-strtok_r.o)
                0x000000000080be04                __strtok_r
 .text.__sfvwrite_r
                0x000000000080bed4      0x548 /opt/devkitpro/devkitPPC/lib/gcc/powerpc-eabi/4.8.2/../../../../powerpc-eabi/lib/libc.a(lib_a-fvwrite.o)
                0x000000000080bed4                __sfvwrite_r
 .text.memchr   0x000000000080c41c       0xf0 /opt/devkitpro/devkitPPC/lib/gcc/powerpc-eabi/4.8.2/../../../../powerpc-eabi/lib/libc.a(lib_a-memchr.o)
                0x000000000080c41c                memchr
 .text.memmove  0x000000000080c50c      0x138 /opt/devkitpro/devkitPPC/lib/gcc/powerpc-eabi/4.8.2/../../../../powerpc-eabi/lib/libc.a(lib_a-memmove.o)
                0x000000000080c50c                memmove
 .text.__swsetup_r
                0x000000000080c644      0x18c /opt/devkitpro/devkitPPC/lib/gcc/powerpc-eabi/4.8.2/../../../../powerpc-eabi/lib/libc.a(lib_a-wsetup.o)
                0x000000000080c644                __swsetup_r
 .text.__sflush_r
                0x000000000080c7d0      0x2b8 /opt/devkitpro/devkitPPC/lib/gcc/powerpc-eabi/4.8.2/../../../../powerpc-eabi/lib/libc.a(lib_a-fflush.o)
                0x000000000080c7d0                __sflush_r
 .text._fflush_r
                0x000000000080ca88       0xb8 /opt/devkitpro/devkitPPC/lib/gcc/powerpc-eabi/4.8.2/../../../../powerpc-eabi/lib/libc.a(lib_a-fflush.o)
                0x000000000080ca88                _fflush_r
 .text._cleanup_r
                0x000000000080cb40        0xc /opt/devkitpro/devkitPPC/lib/gcc/powerpc-eabi/4.8.2/../../../../powerpc-eabi/lib/libc.a(lib_a-findfp.o)
                0x000000000080cb40                _cleanup_r
 .text.std.isra.0
                0x000000000080cb4c       0x9c /opt/devkitpro/devkitPPC/lib/gcc/powerpc-eabi/4.8.2/../../../../powerpc-eabi/lib/libc.a(lib_a-findfp.o)
 .text.__sfp_lock_acquire
                0x000000000080cbe8       0x48 /opt/devkitpro/devkitPPC/lib/gcc/powerpc-eabi/4.8.2/../../../../powerpc-eabi/lib/libc.a(lib_a-findfp.o)
                0x000000000080cbe8                __sfp_lock_acquire
 .text.__sfp_lock_release
                0x000000000080cc30        0xc /opt/devkitpro/devkitPPC/lib/gcc/powerpc-eabi/4.8.2/../../../../powerpc-eabi/lib/libc.a(lib_a-findfp.o)
                0x000000000080cc30                __sfp_lock_release
 .text.__sinit_lock_acquire
                0x000000000080cc3c       0x48 /opt/devkitpro/devkitPPC/lib/gcc/powerpc-eabi/4.8.2/../../../../powerpc-eabi/lib/libc.a(lib_a-findfp.o)
                0x000000000080cc3c                __sinit_lock_acquire
 .text.__sinit  0x000000000080cc84       0x98 /opt/devkitpro/devkitPPC/lib/gcc/powerpc-eabi/4.8.2/../../../../powerpc-eabi/lib/libc.a(lib_a-findfp.o)
                0x000000000080cc84                __sinit
 .text._fwalk   0x000000000080cd1c       0xd8 /opt/devkitpro/devkitPPC/lib/gcc/powerpc-eabi/4.8.2/../../../../powerpc-eabi/lib/libc.a(lib_a-fwalk.o)
                0x000000000080cd1c                _fwalk
 .text.__smakebuf_r
                0x000000000080cdf4      0x1cc /opt/devkitpro/devkitPPC/lib/gcc/powerpc-eabi/4.8.2/../../../../powerpc-eabi/lib/libc.a(lib_a-makebuf.o)
                0x000000000080cdf4                __smakebuf_r
 .text.__sread  0x000000000080cfc0       0x78 /opt/devkitpro/devkitPPC/lib/gcc/powerpc-eabi/4.8.2/../../../../powerpc-eabi/lib/libc.a(lib_a-stdio.o)
                0x000000000080cfc0                __sread
 .text.__swrite
                0x000000000080d038       0x8c /opt/devkitpro/devkitPPC/lib/gcc/powerpc-eabi/4.8.2/../../../../powerpc-eabi/lib/libc.a(lib_a-stdio.o)
                0x000000000080d038                __swrite
 .text.__sseek  0x000000000080d0c4       0x70 /opt/devkitpro/devkitPPC/lib/gcc/powerpc-eabi/4.8.2/../../../../powerpc-eabi/lib/libc.a(lib_a-stdio.o)
                0x000000000080d0c4                __sseek
 .text.__sclose
                0x000000000080d134        0x8 /opt/devkitpro/devkitPPC/lib/gcc/powerpc-eabi/4.8.2/../../../../powerpc-eabi/lib/libc.a(lib_a-stdio.o)
                0x000000000080d134                __sclose
 .text._fclose_r
                0x000000000080d13c      0x184 /opt/devkitpro/devkitPPC/lib/gcc/powerpc-eabi/4.8.2/../../../../powerpc-eabi/lib/libc.a(lib_a-fclose.o)
                0x000000000080d13c                _fclose_r
 .text.fclose   0x000000000080d2c0       0x10 /opt/devkitpro/devkitPPC/lib/gcc/powerpc-eabi/4.8.2/../../../../powerpc-eabi/lib/libc.a(lib_a-fclose.o)
                0x000000000080d2c0                fclose
 .text          0x000000000080d2d0       0xa0 /opt/devkitpro/devkitPPC/lib/gcc/powerpc-eabi/4.8.2/../../../../powerpc-eabi/lib/libsysbase.a(close.o)
                0x000000000080d2d0                _close_r
 .text          0x000000000080d370       0xb0 /opt/devkitpro/devkitPPC/lib/gcc/powerpc-eabi/4.8.2/../../../../powerpc-eabi/lib/libsysbase.a(fstat.o)
                0x000000000080d370                _fstat_r
 .text          0x000000000080d420        0x8 /opt/devkitpro/devkitPPC/lib/gcc/powerpc-eabi/4.8.2/../../../../powerpc-eabi/lib/libsysbase.a(isatty.o)
                0x000000000080d420                _isatty_r
 .text          0x000000000080d428       0xc0 /opt/devkitpro/devkitPPC/lib/gcc/powerpc-eabi/4.8.2/../../../../powerpc-eabi/lib/libsysbase.a(lseek.o)
                0x000000000080d428                _lseek_r
 .text          0x000000000080d4e8       0xb0 /opt/devkitpro/devkitPPC/lib/gcc/powerpc-eabi/4.8.2/../../../../powerpc-eabi/lib/libsysbase.a(read.o)
                0x000000000080d4e8                _read_r
 .text          0x000000000080d598       0xb8 /opt/devkitpro/devkitPPC/lib/gcc/powerpc-eabi/4.8.2/../../../../powerpc-eabi/lib/libsysbase.a(write.o)
                0x000000000080d598                _write_r
 .text          0x000000000080d650       0x4c /opt/devkitpro/devkitPPC/lib/gcc/powerpc-eabi/4.8.2/../../../../powerpc-eabi/lib/libsysbase.a(flock.o)
                0x000000000080d650                __flockfile
                0x000000000080d694                __funlockfile
 .text          0x000000000080d69c       0xb0 /opt/devkitpro/devkitPPC/lib/gcc/powerpc-eabi/4.8.2/../../../../powerpc-eabi/lib/libsysbase.a(syscall_support.o)
                0x000000000080d69c                __libc_lock_init
                0x000000000080d6bc                __libc_lock_close
                0x000000000080d6dc                __libc_lock_release
                0x000000000080d6fc                __libc_lock_acquire
                0x000000000080d71c                __malloc_lock
                0x000000000080d734                __malloc_unlock
 .text          0x000000000080d74c      0x174 /opt/devkitpro/devkitPPC/lib/gcc/powerpc-eabi/4.8.2/../../../../powerpc-eabi/lib/libsysbase.a(handle_manager.o)
                0x000000000080d74c                __release_handle
                0x000000000080d7a8                __alloc_handle
                0x000000000080d898                __get_handle

.rodata         0x000000000080d8c0     0x3580
 *(.rodata*)
 .rodata.str1.4
                0x000000000080d8c0        0x3 entry.o
 *fill*         0x000000000080d8c3        0x1 
 .rodata.str1.4
                0x000000000080d8c4       0x1b main.o
 *fill*         0x000000000080d8df        0x1 
 .rodata.str1.4
                0x000000000080d8e0       0x32 acp_functions.o
 *fill*         0x000000000080d912        0x2 
 .rodata.str1.4
                0x000000000080d914       0xa0 aoc_functions.o
 .rodata.str1.4
                0x000000000080d9b4      0x484 ax_functions.o
 .rodata.str1.4
                0x000000000080de38      0x153 curl_functions.o
 *fill*         0x000000000080df8b        0x1 
 .rodata.str1.4
                0x000000000080df8c      0x79e fs_functions.o
 *fill*         0x000000000080e72a        0x2 
 .rodata.str1.4
                0x000000000080e72c      0xe7d gx2_functions.o
 *fill*         0x000000000080f5a9        0x3 
 .rodata.str1.4
                0x000000000080f5ac      0xb6f os_functions.o
 *fill*         0x000000000081011b        0x1 
 .rodata.str1.4
                0x000000000081011c      0x1b0 padscore_functions.o
 .rodata.str1.4
                0x00000000008102cc      0x276 socket_functions.o
 *fill*         0x0000000000810542        0x2 
 .rodata.str1.4
                0x0000000000810544      0x138 sys_functions.o
 .rodata.str1.4
                0x000000000081067c      0x262 syshid_functions.o
 *fill*         0x00000000008108de        0x2 
 .rodata.str1.4
                0x00000000008108e0      0x17a vpad_functions.o
 *fill*         0x0000000000810a5a        0x2 
 .rodata.devops_sd_fat
                0x0000000000810a5c       0x64 sd_fat_devoptab.o
 .rodata.str1.4
                0x0000000000810ac0        0xf sd_fat_devoptab.o
                                         0x16 (size before relaxing)
 *fill*         0x0000000000810acf        0x1 
 .rodata.font_bin
                0x0000000000810ad0      0x2f0 font.o
                0x0000000000810ad0                font_bin
 .rodata.str1.4
                0x0000000000810dc0        0xb tty.o
 *fill*         0x0000000000810dcb        0x1 
 .rodata        0x0000000000810dcc       0x64 /opt/devkitpro/devkitPPC/lib/gcc/powerpc-eabi/4.8.2/../../../../powerpc-eabi/lib/libsysbase.a(iosupport.o)
                0x0000000000810dcc                dotab_stdnull
 .rodata.str1.4
                0x0000000000810e30        0x8 /opt/devkitpro/devkitPPC/lib/gcc/powerpc-eabi/4.8.2/../../../../powerpc-eabi/lib/libsysbase.a(iosupport.o)
 .rodata.str1.4
                0x0000000000810e38        0x2 /opt/devkitpro/devkitPPC/lib/gcc/powerpc-eabi/4.8.2/../../../../powerpc-eabi/lib/libc.a(lib_a-impure.o)
 *fill*         0x0000000000810e3a        0x2 
 .rodata.str1.4
                0x0000000000810e3c        0x4 /opt/devkitpro/devkitPPC/lib/gcc/powerpc-eabi/4.8.2/../../../../powerpc-eabi/lib/libc.a(lib_a-puts.o)
                                          0x2 (size before relaxing)

.data           0x0000000000810e40      0x8d0
 *(.data*)
 .data          0x0000000000810e40        0x8 acp_functions.o
                0x0000000000810e40                acp_handle
                0x0000000000810e44                GetMetaXml
 .data          0x0000000000810e48       0x24 aoc_functions.o
                0x0000000000810e48                aoc_handle
                0x0000000000810e4c                AOC_Initialize
                0x0000000000810e50                AOC_Finalize
                0x0000000000810e54                AOC_CalculateWorkBufferSize
                0x0000000000810e58                AOC_ListTitle
                0x0000000000810e5c                AOC_OpenTitle
                0x0000000000810e60                AOC_CloseTitle
                0x0000000000810e64                AOC_DeleteContent
                0x0000000000810e68                AOC_GetPurchaseInfo
 .data          0x0000000000810e6c       0x58 ax_functions.o
                0x0000000000810e6c                AXInit
                0x0000000000810e70                sound_handle
                0x0000000000810e74                AXInitWithParams
                0x0000000000810e78                AXGetInputSamplesPerSec
                0x0000000000810e7c                AXQuit
                0x0000000000810e80                AXVoiceBegin
                0x0000000000810e84                AXVoiceEnd
                0x0000000000810e88                AXSetVoiceType
                0x0000000000810e8c                AXSetVoiceOffsets
                0x0000000000810e90                AXSetVoiceSrcType
                0x0000000000810e94                AXSetVoiceVe
                0x0000000000810e98                AXSetVoiceDeviceMix
                0x0000000000810e9c                AXSetVoiceState
                0x0000000000810ea0                AXSetVoiceSrc
                0x0000000000810ea4                AXSetVoiceSrcRatio
                0x0000000000810ea8                AXAcquireVoice
                0x0000000000810eac                AXFreeVoice
                0x0000000000810eb0                AXRegisterFrameCallback
                0x0000000000810eb4                AXGetVoiceLoopCount
                0x0000000000810eb8                AXSetVoiceEndOffset
                0x0000000000810ebc                AXSetVoiceLoopOffset
                0x0000000000810ec0                AXGetInputSamplesPerFrame
 .data          0x0000000000810ec4       0x1c curl_functions.o
                0x0000000000810ec4                libcurl_handle
                0x0000000000810ec8                n_curl_global_init
                0x0000000000810ecc                n_curl_easy_init
                0x0000000000810ed0                n_curl_easy_setopt
                0x0000000000810ed4                n_curl_easy_perform
                0x0000000000810ed8                n_curl_easy_cleanup
                0x0000000000810edc                n_curl_easy_getinfo
 .data          0x0000000000810ee0       0xa8 fs_functions.o
                0x0000000000810ee0                FSInit
                0x0000000000810ee4                FSShutdown
                0x0000000000810ee8                FSAddClientEx
                0x0000000000810eec                FSDelClient
                0x0000000000810ef0                FSInitCmdBlock
                0x0000000000810ef4                FSGetMountSource
                0x0000000000810ef8                FSMount
                0x0000000000810efc                FSUnmount
                0x0000000000810f00                FSGetStat
                0x0000000000810f04                FSGetStatAsync
                0x0000000000810f08                FSRename
                0x0000000000810f0c                FSRenameAsync
                0x0000000000810f10                FSRemove
                0x0000000000810f14                FSRemoveAsync
                0x0000000000810f18                FSFlushQuota
                0x0000000000810f1c                FSFlushQuotaAsync
                0x0000000000810f20                FSGetFreeSpaceSize
                0x0000000000810f24                FSGetFreeSpaceSizeAsync
                0x0000000000810f28                FSRollbackQuota
                0x0000000000810f2c                FSRollbackQuotaAsync
                0x0000000000810f30                FSOpenDir
                0x0000000000810f34                FSOpenDirAsync
                0x0000000000810f38                FSReadDir
                0x0000000000810f3c                FSRewindDir
                0x0000000000810f40                FSCloseDir
                0x0000000000810f44                FSChangeDir
                0x0000000000810f48                FSChangeDirAsync
                0x0000000000810f4c                FSMakeDir
                0x0000000000810f50                FSMakeDirAsync
                0x0000000000810f54                FSOpenFile
                0x0000000000810f58                FSOpenFileAsync
                0x0000000000810f5c                FSReadFile
                0x0000000000810f60                FSCloseFile
                0x0000000000810f64                FSFlushFile
                0x0000000000810f68                FSTruncateFile
                0x0000000000810f6c                FSGetStatFile
                0x0000000000810f70                FSSetPosFile
                0x0000000000810f74                FSWriteFile
                0x0000000000810f78                FSBindMount
                0x0000000000810f7c                FSBindUnmount
                0x0000000000810f80                FSMakeQuota
                0x0000000000810f84                FSMakeQuotaAsync
 .data          0x0000000000810f88      0x108 gx2_functions.o
                0x0000000000810f88                gx2_handle
                0x0000000000810f8c                GX2Init
                0x0000000000810f90                GX2Shutdown
                0x0000000000810f94                GX2Flush
                0x0000000000810f98                GX2GetMainCoreId
                0x0000000000810f9c                GX2DrawDone
                0x0000000000810fa0                GX2ClearColor
                0x0000000000810fa4                GX2SetViewport
                0x0000000000810fa8                GX2SetScissor
                0x0000000000810fac                GX2SetContextState
                0x0000000000810fb0                GX2DrawEx
                0x0000000000810fb4                GX2DrawIndexedEx
                0x0000000000810fb8                GX2ClearDepthStencilEx
                0x0000000000810fbc                GX2CopyColorBufferToScanBuffer
                0x0000000000810fc0                GX2SwapScanBuffers
                0x0000000000810fc4                GX2SetTVEnable
                0x0000000000810fc8                GX2SetSwapInterval
                0x0000000000810fcc                GX2GetSwapInterval
                0x0000000000810fd0                GX2WaitForVsync
                0x0000000000810fd4                GX2CalcTVSize
                0x0000000000810fd8                GX2Invalidate
                0x0000000000810fdc                GX2SetTVBuffer
                0x0000000000810fe0                GX2CalcSurfaceSizeAndAlignment
                0x0000000000810fe4                GX2InitDepthBufferRegs
                0x0000000000810fe8                GX2InitColorBufferRegs
                0x0000000000810fec                GX2CalcColorBufferAuxInfo
                0x0000000000810ff0                GX2CalcDepthBufferHiZInfo
                0x0000000000810ff4                GX2InitDepthBufferHiZEnable
                0x0000000000810ff8                GX2SetupContextStateEx
                0x0000000000810ffc                GX2SetColorBuffer
                0x0000000000811000                GX2SetDepthBuffer
                0x0000000000811004                GX2SetAttribBuffer
                0x0000000000811008                GX2InitTextureRegs
                0x000000000081100c                GX2InitSampler
                0x0000000000811010                GX2CalcFetchShaderSizeEx
                0x0000000000811014                GX2InitFetchShaderEx
                0x0000000000811018                GX2SetFetchShader
                0x000000000081101c                GX2SetVertexUniformReg
                0x0000000000811020                GX2SetPixelUniformReg
                0x0000000000811024                GX2SetPixelTexture
                0x0000000000811028                GX2SetVertexTexture
                0x000000000081102c                GX2SetPixelSampler
                0x0000000000811030                GX2SetVertexSampler
                0x0000000000811034                GX2SetPixelShader
                0x0000000000811038                GX2SetVertexShader
                0x000000000081103c                GX2InitSamplerZMFilter
                0x0000000000811040                GX2SetColorControl
                0x0000000000811044                GX2SetDepthOnlyControl
                0x0000000000811048                GX2SetBlendControl
                0x000000000081104c                GX2CalcDRCSize
                0x0000000000811050                GX2SetDRCBuffer
                0x0000000000811054                GX2SetDRCScale
                0x0000000000811058                GX2SetDRCEnable
                0x000000000081105c                GX2SetPolygonControl
                0x0000000000811060                GX2SetCullOnlyControl
                0x0000000000811064                GX2SetDepthStencilControl
                0x0000000000811068                GX2SetStencilMask
                0x000000000081106c                GX2SetLineWidth
                0x0000000000811070                GX2SetDRCGamma
                0x0000000000811074                GX2SetTVGamma
                0x0000000000811078                GX2GetSystemTVScanMode
                0x000000000081107c                GX2GetSystemDRCScanMode
                0x0000000000811080                GX2RSetAllocator
                0x0000000000811084                GX2CopySurface
                0x0000000000811088                GX2ClearBuffersEx
                0x000000000081108c                GX2SetClearDepthStencil
 .data          0x0000000000811090      0x104 os_functions.o
                0x0000000000811090                OSDynLoad_Acquire
                0x0000000000811094                OSDynLoad_FindExport
                0x0000000000811098                coreinit_handle
                0x000000000081109c                OSFatal
                0x00000000008110a0                OSGetSecurityLevel
                0x00000000008110a4                OSGetTitleID
                0x00000000008110a8                OSGetArgcArgv
                0x00000000008110ac                OSSetExceptionCallback
                0x00000000008110b0                DCFlushRange
                0x00000000008110b4                ICInvalidateRange
                0x00000000008110b8                OSEffectiveToPhysical
                0x00000000008110bc                __os_snprintf
                0x00000000008110c0                __gh_errno_ptr
                0x00000000008110c4                __Exit
                0x00000000008110c8                OSScreenInit
                0x00000000008110cc                OSScreenGetBufferSizeEx
                0x00000000008110d0                OSScreenSetBufferEx
                0x00000000008110d4                OSScreenClearBufferEx
                0x00000000008110d8                OSScreenFlipBuffersEx
                0x00000000008110dc                OSScreenPutFontEx
                0x00000000008110e0                OSScreenEnableEx
                0x00000000008110e4                OSCreateThread
                0x00000000008110e8                OSResumeThread
                0x00000000008110ec                OSSuspendThread
                0x00000000008110f0                OSIsThreadTerminated
                0x00000000008110f4                OSIsThreadSuspended
                0x00000000008110f8                OSJoinThread
                0x00000000008110fc                OSSetThreadPriority
                0x0000000000811100                OSDetachThread
                0x0000000000811104                OSSleepTicks
                0x0000000000811108                OSGetTick
                0x000000000081110c                OSGetTime
                0x0000000000811110                OSTicksToCalendarTime
                0x0000000000811114                OSInitMutex
                0x0000000000811118                OSLockMutex
                0x000000000081111c                OSUnlockMutex
                0x0000000000811120                OSTryLockMutex
                0x0000000000811124                MCP_Open
                0x0000000000811128                MCP_Close
                0x000000000081112c                MCP_GetOwnTitleInfo
                0x0000000000811130                pMEMAllocFromDefaultHeapEx
                0x0000000000811134                pMEMAllocFromDefaultHeap
                0x0000000000811138                pMEMFreeToDefaultHeap
                0x000000000081113c                MEMGetBaseHeapHandle
                0x0000000000811140                MEMGetAllocatableSizeForFrmHeapEx
                0x0000000000811144                MEMAllocFromFrmHeapEx
                0x0000000000811148                MEMFreeToFrmHeap
                0x000000000081114c                MEMAllocFromExpHeapEx
                0x0000000000811150                MEMCreateExpHeapEx
                0x0000000000811154                MEMDestroyExpHeap
                0x0000000000811158                MEMFreeToExpHeap
                0x000000000081115c                DCInvalidateRange
                0x0000000000811160                IMEnableDim
                0x0000000000811164                IMDisableDim
                0x0000000000811168                IMIsDimEnabled
                0x000000000081116c                IMEnableAPD
                0x0000000000811170                IMDisableAPD
                0x0000000000811174                IMIsAPDEnabled
                0x0000000000811178                IMIsAPDEnabledBySysSettings
                0x000000000081117c                LiWaitIopComplete
                0x0000000000811180                LiWaitIopCompleteWithInterrupts
                0x0000000000811184                addr_LiWaitOneChunk
                0x0000000000811188                addr_PrepareTitle_hook
                0x000000000081118c                addr_sgIsLoadingBuffer
                0x0000000000811190                addr_gDynloadInitialized
 .data          0x0000000000811194       0x28 padscore_functions.o
                0x0000000000811194                padscore_handle
                0x0000000000811198                WPADInit
                0x000000000081119c                KPADInit
                0x00000000008111a0                WPADProbe
                0x00000000008111a4                WPADSetDataFormat
                0x00000000008111a8                WPADEnableURCC
                0x00000000008111ac                WPADRead
                0x00000000008111b0                KPADRead
                0x00000000008111b4                WPADSetAutoSleepTime
                0x00000000008111b8                WPADDisconnect
 .data          0x00000000008111bc       0x44 socket_functions.o
                0x00000000008111bc                nsysnet_handle
                0x00000000008111c0                socket_lib_init
                0x00000000008111c4                socket
                0x00000000008111c8                socketclose
                0x00000000008111cc                connect
                0x00000000008111d0                bind
                0x00000000008111d4                listen
                0x00000000008111d8                accept
                0x00000000008111dc                send
                0x00000000008111e0                recv
                0x00000000008111e4                sendto
                0x00000000008111e8                setsockopt
                0x00000000008111ec                inet_ntoa
                0x00000000008111f0                inet_aton
                0x00000000008111f4                NSSLWrite
                0x00000000008111f8                NSSLRead
                0x00000000008111fc                NSSLCreateConnection
 .data          0x0000000000811200       0x18 sys_functions.o
                0x0000000000811200                sysapp_handle
                0x0000000000811204                _SYSLaunchTitleByPathFromLauncher
                0x0000000000811208                SYSRelaunchTitle
                0x000000000081120c                SYSLaunchMenu
                0x0000000000811210                SYSCheckTitleExists
                0x0000000000811214                SYSLaunchTitle
 .data          0x0000000000811218       0x38 syshid_functions.o
                0x0000000000811218                syshid_handle
                0x000000000081121c                HIDSetup
                0x0000000000811220                HIDTeardown
                0x0000000000811224                HIDAddClient
                0x0000000000811228                HIDDelClient
                0x000000000081122c                HIDGetDescriptor
                0x0000000000811230                HIDSetDescriptor
                0x0000000000811234                HIDRead
                0x0000000000811238                HIDWrite
                0x000000000081123c                HIDSetProtocol
                0x0000000000811240                HIDGetProtocol
                0x0000000000811244                HIDSetIdle
                0x0000000000811248                HIDGetReport
                0x000000000081124c                HIDSetReport
 .data          0x0000000000811250       0x20 vpad_functions.o
                0x0000000000811250                vpad_handle
                0x0000000000811254                vpadbase_handle
                0x0000000000811258                VPADInit
                0x000000000081125c                VPADRead
                0x0000000000811260                VPADGetLcdMode
                0x0000000000811264                VPADSetLcdMode
                0x0000000000811268                VPADBASEGetMotorOnRemainingCount
                0x000000000081126c                VPADBASESetMotorOnRemainingCount
 .data.mem1_heap
                0x0000000000811270        0x4 memory.o
 .data.bucket_heap
                0x0000000000811274        0x4 memory.o
 .data          0x0000000000811278       0x44 /opt/devkitpro/devkitPPC/lib/gcc/powerpc-eabi/4.8.2/../../../../powerpc-eabi/lib/libsysbase.a(iosupport.o)
                0x000000000081127c                devoptab_list
 *fill*         0x00000000008112bc        0x4 
 .data.impure_data
                0x00000000008112c0      0x440 /opt/devkitpro/devkitPPC/lib/gcc/powerpc-eabi/4.8.2/../../../../powerpc-eabi/lib/libc.a(lib_a-impure.o)
                0x0000000000811700                __sdata_start = .
 *(.sdata*)
 .sdata.framebuffer_size
                0x0000000000811700        0x4 tty.o
                0x0000000000811700                framebuffer_size
 .sdata.framebuffer
                0x0000000000811704        0x4 tty.o
                0x0000000000811704                framebuffer
 .sdata         0x0000000000811708        0x8 /opt/devkitpro/devkitPPC/lib/gcc/powerpc-eabi/4.8.2/../../../../powerpc-eabi/lib/libc.a(lib_a-impure.o)
                0x0000000000811708                _global_impure_ptr
                0x000000000081170c                _impure_ptr
                0x0000000000811710                __sdata_end = .
                0x0000000000811710                __sdata2_start = .
 *(.sdata2*)
                0x0000000000811710                __sdata2_end = .

.bss            0x0000000000811710     0x114c
                0x0000000000811710                __bss_start = .
 *(.bss*)
 .bss.dotab_stdout
                0x0000000000811710       0x64 tty.o
 .bss.__sfp_lock
                0x0000000000811774        0x4 /opt/devkitpro/devkitPPC/lib/gcc/powerpc-eabi/4.8.2/../../../../powerpc-eabi/lib/libc.a(lib_a-findfp.o)
 .bss.__sinit_lock
                0x0000000000811778        0x4 /opt/devkitpro/devkitPPC/lib/gcc/powerpc-eabi/4.8.2/../../../../powerpc-eabi/lib/libc.a(lib_a-findfp.o)
 .bss           0x000000000081177c       0x24 /opt/devkitpro/devkitPPC/lib/gcc/powerpc-eabi/4.8.2/../../../../powerpc-eabi/lib/libsysbase.a(syscall_support.o)
                0x000000000081177c                __syscalls
 .bss           0x00000000008117a0     0x1004 /opt/devkitpro/devkitPPC/lib/gcc/powerpc-eabi/4.8.2/../../../../powerpc-eabi/lib/libsysbase.a(handle_manager.o)
 *(.sbss*)
 .sbss          0x0000000000000000        0x0 entry.o
 .sbss          0x00000000008127a4        0x4 main.o
                0x00000000008127a4                vpad_error
 .sbss.column   0x00000000008127a8        0x4 tty.o
                0x00000000008127a8                column
 .sbss.line     0x00000000008127ac        0x4 tty.o
                0x00000000008127ac                line
 *(COMMON)
 COMMON         0x00000000008127b0       0xac main.o
                0x00000000008127b0                vpad_data
                0x000000000081285c                __bss_end = .
                0x000000000081285c                __CODE_END = .

/DISCARD/
 *(*)
OUTPUT(../hello_world_dbg.elf elf32-powerpc)
